
2022-01-05b AT4809 UART Driver.elf:     file format elf32-avr

Sections:
Idx Name          Size      VMA       LMA       File off  Algn
  0 .data         00000004  00802800  00001a66  00001b1a  2**0
                  CONTENTS, ALLOC, LOAD, DATA
  1 .text         00001a22  00000000  00000000  000000b4  2**1
                  CONTENTS, ALLOC, LOAD, READONLY, CODE
  2 .rodata       00000044  00005a22  00001a22  00001ad6  2**0
                  CONTENTS, ALLOC, LOAD, READONLY, DATA
  3 .bss          000000db  00802804  00802804  00001b1e  2**0
                  ALLOC
  4 .comment      00000030  00000000  00000000  00001b1e  2**0
                  CONTENTS, READONLY
  5 .note.gnu.avr.deviceinfo 00000040  00000000  00000000  00001b50  2**2
                  CONTENTS, READONLY
  6 .debug_aranges 000002e8  00000000  00000000  00001b90  2**0
                  CONTENTS, READONLY, DEBUGGING
  7 .debug_info   000099f6  00000000  00000000  00001e78  2**0
                  CONTENTS, READONLY, DEBUGGING
  8 .debug_abbrev 000035e7  00000000  00000000  0000b86e  2**0
                  CONTENTS, READONLY, DEBUGGING
  9 .debug_line   0000332d  00000000  00000000  0000ee55  2**0
                  CONTENTS, READONLY, DEBUGGING
 10 .debug_frame  00000a70  00000000  00000000  00012184  2**2
                  CONTENTS, READONLY, DEBUGGING
 11 .debug_str    00003115  00000000  00000000  00012bf4  2**0
                  CONTENTS, READONLY, DEBUGGING
 12 .debug_loc    00006063  00000000  00000000  00015d09  2**0
                  CONTENTS, READONLY, DEBUGGING
 13 .debug_ranges 00000318  00000000  00000000  0001bd6c  2**0
                  CONTENTS, READONLY, DEBUGGING

Disassembly of section .text:

00000000 <__vectors>:
       0:	0c 94 5a 00 	jmp	0xb4	; 0xb4 <__dtors_end>
       4:	0c 94 82 00 	jmp	0x104	; 0x104 <__bad_interrupt>
       8:	0c 94 82 00 	jmp	0x104	; 0x104 <__bad_interrupt>
       c:	0c 94 82 00 	jmp	0x104	; 0x104 <__bad_interrupt>
      10:	0c 94 38 04 	jmp	0x870	; 0x870 <__vector_4>
      14:	0c 94 82 00 	jmp	0x104	; 0x104 <__bad_interrupt>
      18:	0c 94 82 00 	jmp	0x104	; 0x104 <__bad_interrupt>
      1c:	0c 94 a5 04 	jmp	0x94a	; 0x94a <__vector_7>
      20:	0c 94 82 00 	jmp	0x104	; 0x104 <__bad_interrupt>
      24:	0c 94 82 00 	jmp	0x104	; 0x104 <__bad_interrupt>
      28:	0c 94 82 00 	jmp	0x104	; 0x104 <__bad_interrupt>
      2c:	0c 94 82 00 	jmp	0x104	; 0x104 <__bad_interrupt>
      30:	0c 94 82 00 	jmp	0x104	; 0x104 <__bad_interrupt>
      34:	0c 94 82 00 	jmp	0x104	; 0x104 <__bad_interrupt>
      38:	0c 94 82 00 	jmp	0x104	; 0x104 <__bad_interrupt>
      3c:	0c 94 82 00 	jmp	0x104	; 0x104 <__bad_interrupt>
      40:	0c 94 82 00 	jmp	0x104	; 0x104 <__bad_interrupt>
      44:	0c 94 7f 04 	jmp	0x8fe	; 0x8fe <__vector_17>
      48:	0c 94 82 00 	jmp	0x104	; 0x104 <__bad_interrupt>
      4c:	0c 94 82 00 	jmp	0x104	; 0x104 <__bad_interrupt>
      50:	0c 94 82 00 	jmp	0x104	; 0x104 <__bad_interrupt>
      54:	0c 94 82 00 	jmp	0x104	; 0x104 <__bad_interrupt>
      58:	0c 94 82 00 	jmp	0x104	; 0x104 <__bad_interrupt>
      5c:	0c 94 82 00 	jmp	0x104	; 0x104 <__bad_interrupt>
      60:	0c 94 82 00 	jmp	0x104	; 0x104 <__bad_interrupt>
      64:	0c 94 82 00 	jmp	0x104	; 0x104 <__bad_interrupt>
      68:	0c 94 82 00 	jmp	0x104	; 0x104 <__bad_interrupt>
      6c:	0c 94 82 00 	jmp	0x104	; 0x104 <__bad_interrupt>
      70:	0c 94 82 00 	jmp	0x104	; 0x104 <__bad_interrupt>
      74:	0c 94 82 00 	jmp	0x104	; 0x104 <__bad_interrupt>
      78:	0c 94 82 00 	jmp	0x104	; 0x104 <__bad_interrupt>
      7c:	0c 94 82 00 	jmp	0x104	; 0x104 <__bad_interrupt>
      80:	0c 94 82 00 	jmp	0x104	; 0x104 <__bad_interrupt>
      84:	0c 94 82 00 	jmp	0x104	; 0x104 <__bad_interrupt>
      88:	0c 94 82 00 	jmp	0x104	; 0x104 <__bad_interrupt>
      8c:	0c 94 82 00 	jmp	0x104	; 0x104 <__bad_interrupt>
      90:	0c 94 82 00 	jmp	0x104	; 0x104 <__bad_interrupt>
      94:	0c 94 82 00 	jmp	0x104	; 0x104 <__bad_interrupt>
      98:	0c 94 82 00 	jmp	0x104	; 0x104 <__bad_interrupt>
      9c:	0c 94 82 00 	jmp	0x104	; 0x104 <__bad_interrupt>
      a0:	93 07       	cpc	r25, r19
      a2:	9b 07       	cpc	r25, r27
      a4:	a6 07       	cpc	r26, r22
      a6:	b3 07       	cpc	r27, r19
      a8:	c2 07       	cpc	r28, r18
      aa:	ca 07       	cpc	r28, r26
      ac:	d5 07       	cpc	r29, r21
      ae:	e2 07       	cpc	r30, r18

000000b0 <__ctors_start>:
      b0:	ed 05       	cpc	r30, r13

000000b2 <__ctors_end>:
      b2:	f4 05       	cpc	r31, r4

000000b4 <__dtors_end>:
      b4:	11 24       	eor	r1, r1
      b6:	1f be       	out	0x3f, r1	; 63
      b8:	cf ef       	ldi	r28, 0xFF	; 255
      ba:	cd bf       	out	0x3d, r28	; 61
      bc:	df e3       	ldi	r29, 0x3F	; 63
      be:	de bf       	out	0x3e, r29	; 62

000000c0 <__do_clear_bss>:
      c0:	28 e2       	ldi	r18, 0x28	; 40
      c2:	a4 e0       	ldi	r26, 0x04	; 4
      c4:	b8 e2       	ldi	r27, 0x28	; 40
      c6:	01 c0       	rjmp	.+2      	; 0xca <.do_clear_bss_start>

000000c8 <.do_clear_bss_loop>:
      c8:	1d 92       	st	X+, r1

000000ca <.do_clear_bss_start>:
      ca:	af 3d       	cpi	r26, 0xDF	; 223
      cc:	b2 07       	cpc	r27, r18
      ce:	e1 f7       	brne	.-8      	; 0xc8 <.do_clear_bss_loop>

000000d0 <__do_copy_data>:
      d0:	18 e2       	ldi	r17, 0x28	; 40
      d2:	a0 e0       	ldi	r26, 0x00	; 0
      d4:	b8 e2       	ldi	r27, 0x28	; 40
      d6:	e6 e6       	ldi	r30, 0x66	; 102
      d8:	fa e1       	ldi	r31, 0x1A	; 26
      da:	02 c0       	rjmp	.+4      	; 0xe0 <__do_copy_data+0x10>
      dc:	05 90       	lpm	r0, Z+
      de:	0d 92       	st	X+, r0
      e0:	a4 30       	cpi	r26, 0x04	; 4
      e2:	b1 07       	cpc	r27, r17
      e4:	d9 f7       	brne	.-10     	; 0xdc <__do_copy_data+0xc>

000000e6 <__do_global_ctors>:
      e6:	10 e0       	ldi	r17, 0x00	; 0
      e8:	c9 e5       	ldi	r28, 0x59	; 89
      ea:	d0 e0       	ldi	r29, 0x00	; 0
      ec:	04 c0       	rjmp	.+8      	; 0xf6 <__do_global_ctors+0x10>
      ee:	21 97       	sbiw	r28, 0x01	; 1
      f0:	fe 01       	movw	r30, r28
      f2:	0e 94 61 0c 	call	0x18c2	; 0x18c2 <__tablejump2__>
      f6:	c8 35       	cpi	r28, 0x58	; 88
      f8:	d1 07       	cpc	r29, r17
      fa:	c9 f7       	brne	.-14     	; 0xee <__do_global_ctors+0x8>
      fc:	0e 94 f3 04 	call	0x9e6	; 0x9e6 <main>
     100:	0c 94 04 0d 	jmp	0x1a08	; 0x1a08 <__do_global_dtors>

00000104 <__bad_interrupt>:
     104:	0c 94 00 00 	jmp	0	; 0x0 <__vectors>

00000108 <_Z12lcd_send_cmdh>:
	//***********************************************************************
	//	RETURN
	//***********************************************************************

	return;
}   //End function: lcd_print_s8
     108:	e0 e2       	ldi	r30, 0x20	; 32
     10a:	f4 e0       	ldi	r31, 0x04	; 4
     10c:	94 81       	ldd	r25, Z+4	; 0x04
     10e:	90 7f       	andi	r25, 0xF0	; 240
     110:	28 2f       	mov	r18, r24
     112:	22 95       	swap	r18
     114:	2f 70       	andi	r18, 0x0F	; 15
     116:	92 2b       	or	r25, r18
     118:	94 83       	std	Z+4, r25	; 0x04
     11a:	94 81       	ldd	r25, Z+4	; 0x04
     11c:	9f 7d       	andi	r25, 0xDF	; 223
     11e:	94 83       	std	Z+4, r25	; 0x04
     120:	94 81       	ldd	r25, Z+4	; 0x04
     122:	90 61       	ori	r25, 0x10	; 16
     124:	94 83       	std	Z+4, r25	; 0x04
     126:	a7 ee       	ldi	r26, 0xE7	; 231
     128:	b3 e0       	ldi	r27, 0x03	; 3
     12a:	11 97       	sbiw	r26, 0x01	; 1
     12c:	f1 f7       	brne	.-4      	; 0x12a <_Z12lcd_send_cmdh+0x22>
     12e:	00 c0       	rjmp	.+0      	; 0x130 <_Z12lcd_send_cmdh+0x28>
     130:	00 00       	nop
     132:	94 81       	ldd	r25, Z+4	; 0x04
     134:	9f 7e       	andi	r25, 0xEF	; 239
     136:	94 83       	std	Z+4, r25	; 0x04
     138:	a7 ee       	ldi	r26, 0xE7	; 231
     13a:	b3 e0       	ldi	r27, 0x03	; 3
     13c:	11 97       	sbiw	r26, 0x01	; 1
     13e:	f1 f7       	brne	.-4      	; 0x13c <_Z12lcd_send_cmdh+0x34>
     140:	00 c0       	rjmp	.+0      	; 0x142 <_Z12lcd_send_cmdh+0x3a>
     142:	00 00       	nop
     144:	94 81       	ldd	r25, Z+4	; 0x04
     146:	90 7f       	andi	r25, 0xF0	; 240
     148:	8f 70       	andi	r24, 0x0F	; 15
     14a:	89 2b       	or	r24, r25
     14c:	84 83       	std	Z+4, r24	; 0x04
     14e:	84 81       	ldd	r24, Z+4	; 0x04
     150:	80 61       	ori	r24, 0x10	; 16
     152:	84 83       	std	Z+4, r24	; 0x04
     154:	87 ee       	ldi	r24, 0xE7	; 231
     156:	93 e0       	ldi	r25, 0x03	; 3
     158:	01 97       	sbiw	r24, 0x01	; 1
     15a:	f1 f7       	brne	.-4      	; 0x158 <_Z12lcd_send_cmdh+0x50>
     15c:	00 c0       	rjmp	.+0      	; 0x15e <_Z12lcd_send_cmdh+0x56>
     15e:	00 00       	nop
     160:	84 81       	ldd	r24, Z+4	; 0x04
     162:	8f 7e       	andi	r24, 0xEF	; 239
     164:	84 83       	std	Z+4, r24	; 0x04
     166:	a7 ee       	ldi	r26, 0xE7	; 231
     168:	b3 e0       	ldi	r27, 0x03	; 3
     16a:	11 97       	sbiw	r26, 0x01	; 1
     16c:	f1 f7       	brne	.-4      	; 0x16a <_Z12lcd_send_cmdh+0x62>
     16e:	00 c0       	rjmp	.+0      	; 0x170 <_Z12lcd_send_cmdh+0x68>
     170:	00 00       	nop
     172:	8f e0       	ldi	r24, 0x0F	; 15
     174:	97 e2       	ldi	r25, 0x27	; 39
     176:	01 97       	sbiw	r24, 0x01	; 1
     178:	f1 f7       	brne	.-4      	; 0x176 <_Z12lcd_send_cmdh+0x6e>
     17a:	00 c0       	rjmp	.+0      	; 0x17c <_Z12lcd_send_cmdh+0x74>
     17c:	00 00       	nop
     17e:	08 95       	ret

00000180 <_Z8lcd_initv>:
     180:	82 e0       	ldi	r24, 0x02	; 2
     182:	0e 94 84 00 	call	0x108	; 0x108 <_Z12lcd_send_cmdh>
     186:	88 e2       	ldi	r24, 0x28	; 40
     188:	0e 94 84 00 	call	0x108	; 0x108 <_Z12lcd_send_cmdh>
     18c:	81 e0       	ldi	r24, 0x01	; 1
     18e:	0e 94 84 00 	call	0x108	; 0x108 <_Z12lcd_send_cmdh>
     192:	8c e0       	ldi	r24, 0x0C	; 12
     194:	0e 94 84 00 	call	0x108	; 0x108 <_Z12lcd_send_cmdh>
     198:	80 e0       	ldi	r24, 0x00	; 0
     19a:	80 32       	cpi	r24, 0x20	; 32
     19c:	40 f4       	brcc	.+16     	; 0x1ae <_Z8lcd_initv+0x2e>
     19e:	e8 2f       	mov	r30, r24
     1a0:	f0 e0       	ldi	r31, 0x00	; 0
     1a2:	e3 5f       	subi	r30, 0xF3	; 243
     1a4:	f7 4d       	sbci	r31, 0xD7	; 215
     1a6:	90 e2       	ldi	r25, 0x20	; 32
     1a8:	90 83       	st	Z, r25
     1aa:	8f 5f       	subi	r24, 0xFF	; 255
     1ac:	f6 cf       	rjmp	.-20     	; 0x19a <_Z8lcd_initv+0x1a>
     1ae:	80 e0       	ldi	r24, 0x00	; 0
     1b0:	84 30       	cpi	r24, 0x04	; 4
     1b2:	38 f4       	brcc	.+14     	; 0x1c2 <_Z8lcd_initv+0x42>
     1b4:	e8 2f       	mov	r30, r24
     1b6:	f0 e0       	ldi	r31, 0x00	; 0
     1b8:	e7 5f       	subi	r30, 0xF7	; 247
     1ba:	f7 4d       	sbci	r31, 0xD7	; 215
     1bc:	10 82       	st	Z, r1
     1be:	8f 5f       	subi	r24, 0xFF	; 255
     1c0:	f7 cf       	rjmp	.-18     	; 0x1b0 <_Z8lcd_initv+0x30>
     1c2:	10 92 08 28 	sts	0x2808, r1	; 0x802808 <lcd_cfg_flags>
     1c6:	10 92 07 28 	sts	0x2807, r1	; 0x802807 <lcd_error>
     1ca:	08 95       	ret

000001cc <_Z10lcd_updatev>:
     1cc:	cf 93       	push	r28
     1ce:	80 91 05 28 	lds	r24, 0x2805	; 0x802805 <_ZZ10lcd_updatevE6status>
     1d2:	98 2f       	mov	r25, r24
     1d4:	92 95       	swap	r25
     1d6:	96 95       	lsr	r25
     1d8:	97 70       	andi	r25, 0x07	; 7
     1da:	93 70       	andi	r25, 0x03	; 3
     1dc:	c8 2f       	mov	r28, r24
     1de:	cf 71       	andi	r28, 0x1F	; 31
     1e0:	8c 2f       	mov	r24, r28
     1e2:	91 11       	cpse	r25, r1
     1e4:	aa c0       	rjmp	.+340    	; 0x33a <_Z10lcd_updatev+0x16e>
     1e6:	5c 2f       	mov	r21, r28
     1e8:	57 70       	andi	r21, 0x07	; 7
     1ea:	6f ef       	ldi	r22, 0xFF	; 255
     1ec:	70 e0       	ldi	r23, 0x00	; 0
     1ee:	05 2e       	mov	r0, r21
     1f0:	02 c0       	rjmp	.+4      	; 0x1f6 <_Z10lcd_updatev+0x2a>
     1f2:	66 0f       	add	r22, r22
     1f4:	77 1f       	adc	r23, r23
     1f6:	0a 94       	dec	r0
     1f8:	e2 f7       	brpl	.-8      	; 0x1f2 <_Z10lcd_updatev+0x26>
     1fa:	9c 2f       	mov	r25, r28
     1fc:	98 71       	andi	r25, 0x18	; 24
     1fe:	29 2f       	mov	r18, r25
     200:	30 e0       	ldi	r19, 0x00	; 0
     202:	35 95       	asr	r19
     204:	27 95       	ror	r18
     206:	35 95       	asr	r19
     208:	27 95       	ror	r18
     20a:	35 95       	asr	r19
     20c:	27 95       	ror	r18
     20e:	f9 01       	movw	r30, r18
     210:	e7 5f       	subi	r30, 0xF7	; 247
     212:	f7 4d       	sbci	r31, 0xD7	; 215
     214:	40 81       	ld	r20, Z
     216:	64 23       	and	r22, r20
     218:	a1 f0       	breq	.+40     	; 0x242 <_Z10lcd_updatev+0x76>
     21a:	91 e0       	ldi	r25, 0x01	; 1
     21c:	01 c0       	rjmp	.+2      	; 0x220 <_Z10lcd_updatev+0x54>
     21e:	99 0f       	add	r25, r25
     220:	5a 95       	dec	r21
     222:	ea f7       	brpl	.-6      	; 0x21e <_Z10lcd_updatev+0x52>
     224:	01 c0       	rjmp	.+2      	; 0x228 <_Z10lcd_updatev+0x5c>
     226:	90 e0       	ldi	r25, 0x00	; 0
     228:	99 23       	and	r25, r25
     22a:	09 f4       	brne	.+2      	; 0x22e <_Z10lcd_updatev+0x62>
     22c:	44 c0       	rjmp	.+136    	; 0x2b6 <_Z10lcd_updatev+0xea>
     22e:	29 2f       	mov	r18, r25
     230:	24 23       	and	r18, r20
     232:	c9 f7       	brne	.-14     	; 0x226 <_Z10lcd_updatev+0x5a>
     234:	8f 5f       	subi	r24, 0xFF	; 255
     236:	99 0f       	add	r25, r25
     238:	b9 f7       	brne	.-18     	; 0x228 <_Z10lcd_updatev+0x5c>
     23a:	23 e6       	ldi	r18, 0x63	; 99
     23c:	20 93 07 28 	sts	0x2807, r18	; 0x802807 <lcd_error>
     240:	f3 cf       	rjmp	.-26     	; 0x228 <_Z10lcd_updatev+0x5c>
     242:	89 2f       	mov	r24, r25
     244:	52 2f       	mov	r21, r18
     246:	91 e0       	ldi	r25, 0x01	; 1
     248:	01 c0       	rjmp	.+2      	; 0x24c <_Z10lcd_updatev+0x80>
     24a:	95 e0       	ldi	r25, 0x05	; 5
     24c:	95 30       	cpi	r25, 0x05	; 5
     24e:	f0 f4       	brcc	.+60     	; 0x28c <_Z10lcd_updatev+0xc0>
     250:	25 2f       	mov	r18, r21
     252:	30 e0       	ldi	r19, 0x00	; 0
     254:	f9 01       	movw	r30, r18
     256:	e7 5f       	subi	r30, 0xF7	; 247
     258:	f7 4d       	sbci	r31, 0xD7	; 215
     25a:	40 81       	ld	r20, Z
     25c:	41 11       	cpse	r20, r1
     25e:	f5 cf       	rjmp	.-22     	; 0x24a <_Z10lcd_updatev+0x7e>
     260:	9f 5f       	subi	r25, 0xFF	; 255
     262:	2f 5f       	subi	r18, 0xFF	; 255
     264:	3f 4f       	sbci	r19, 0xFF	; 255
     266:	24 30       	cpi	r18, 0x04	; 4
     268:	31 05       	cpc	r19, r1
     26a:	14 f4       	brge	.+4      	; 0x270 <_Z10lcd_updatev+0xa4>
     26c:	5f 5f       	subi	r21, 0xFF	; 255
     26e:	01 c0       	rjmp	.+2      	; 0x272 <_Z10lcd_updatev+0xa6>
     270:	50 e0       	ldi	r21, 0x00	; 0
     272:	28 2f       	mov	r18, r24
     274:	30 e0       	ldi	r19, 0x00	; 0
     276:	28 5f       	subi	r18, 0xF8	; 248
     278:	3f 4f       	sbci	r19, 0xFF	; 255
     27a:	20 32       	cpi	r18, 0x20	; 32
     27c:	31 05       	cpc	r19, r1
     27e:	14 f0       	brlt	.+4      	; 0x284 <_Z10lcd_updatev+0xb8>
     280:	88 51       	subi	r24, 0x18	; 24
     282:	01 c0       	rjmp	.+2      	; 0x286 <_Z10lcd_updatev+0xba>
     284:	88 5f       	subi	r24, 0xF8	; 248
     286:	95 30       	cpi	r25, 0x05	; 5
     288:	08 f3       	brcs	.-62     	; 0x24c <_Z10lcd_updatev+0x80>
     28a:	1e c1       	rjmp	.+572    	; 0x4c8 <__LOCK_REGION_LENGTH__+0xc8>
     28c:	e5 2f       	mov	r30, r21
     28e:	f0 e0       	ldi	r31, 0x00	; 0
     290:	e7 5f       	subi	r30, 0xF7	; 247
     292:	f7 4d       	sbci	r31, 0xD7	; 215
     294:	30 81       	ld	r19, Z
     296:	91 e0       	ldi	r25, 0x01	; 1
     298:	01 c0       	rjmp	.+2      	; 0x29c <_Z10lcd_updatev+0xd0>
     29a:	90 e0       	ldi	r25, 0x00	; 0
     29c:	99 23       	and	r25, r25
     29e:	59 f0       	breq	.+22     	; 0x2b6 <_Z10lcd_updatev+0xea>
     2a0:	29 2f       	mov	r18, r25
     2a2:	23 23       	and	r18, r19
     2a4:	d1 f7       	brne	.-12     	; 0x29a <_Z10lcd_updatev+0xce>
     2a6:	99 0f       	add	r25, r25
     2a8:	8f 5f       	subi	r24, 0xFF	; 255
     2aa:	91 11       	cpse	r25, r1
     2ac:	f7 cf       	rjmp	.-18     	; 0x29c <_Z10lcd_updatev+0xd0>
     2ae:	23 e6       	ldi	r18, 0x63	; 99
     2b0:	20 93 07 28 	sts	0x2807, r18	; 0x802807 <lcd_error>
     2b4:	f3 cf       	rjmp	.-26     	; 0x29c <_Z10lcd_updatev+0xd0>
     2b6:	98 2f       	mov	r25, r24
     2b8:	9f 70       	andi	r25, 0x0F	; 15
     2ba:	c1 f0       	breq	.+48     	; 0x2ec <_Z10lcd_updatev+0x120>
     2bc:	90 91 06 28 	lds	r25, 0x2806	; 0x802806 <_ZZ10lcd_updatevE6status+0x1>
     2c0:	96 95       	lsr	r25
     2c2:	9f 71       	andi	r25, 0x1F	; 31
     2c4:	89 13       	cpse	r24, r25
     2c6:	12 c0       	rjmp	.+36     	; 0x2ec <_Z10lcd_updatev+0x120>
     2c8:	e5 e0       	ldi	r30, 0x05	; 5
     2ca:	f8 e2       	ldi	r31, 0x28	; 40
     2cc:	90 81       	ld	r25, Z
     2ce:	9f 77       	andi	r25, 0x7F	; 127
     2d0:	90 83       	st	Z, r25
     2d2:	e8 2f       	mov	r30, r24
     2d4:	f0 e0       	ldi	r31, 0x00	; 0
     2d6:	e3 5f       	subi	r30, 0xF3	; 243
     2d8:	f7 4d       	sbci	r31, 0xD7	; 215
     2da:	90 81       	ld	r25, Z
     2dc:	90 93 04 28 	sts	0x2804, r25	; 0x802804 <__data_end>
     2e0:	e0 e2       	ldi	r30, 0x20	; 32
     2e2:	f4 e0       	ldi	r31, 0x04	; 4
     2e4:	24 81       	ldd	r18, Z+4	; 0x04
     2e6:	20 62       	ori	r18, 0x20	; 32
     2e8:	24 83       	std	Z+4, r18	; 0x04
     2ea:	18 c0       	rjmp	.+48     	; 0x31c <_Z10lcd_updatev+0x150>
     2ec:	e5 e0       	ldi	r30, 0x05	; 5
     2ee:	f8 e2       	ldi	r31, 0x28	; 40
     2f0:	90 81       	ld	r25, Z
     2f2:	90 68       	ori	r25, 0x80	; 128
     2f4:	90 83       	st	Z, r25
     2f6:	28 2f       	mov	r18, r24
     2f8:	20 71       	andi	r18, 0x10	; 16
     2fa:	30 e0       	ldi	r19, 0x00	; 0
     2fc:	22 0f       	add	r18, r18
     2fe:	33 1f       	adc	r19, r19
     300:	22 0f       	add	r18, r18
     302:	33 1f       	adc	r19, r19
     304:	92 2f       	mov	r25, r18
     306:	90 68       	ori	r25, 0x80	; 128
     308:	28 2f       	mov	r18, r24
     30a:	2f 70       	andi	r18, 0x0F	; 15
     30c:	92 2b       	or	r25, r18
     30e:	90 93 04 28 	sts	0x2804, r25	; 0x802804 <__data_end>
     312:	e0 e2       	ldi	r30, 0x20	; 32
     314:	f4 e0       	ldi	r31, 0x04	; 4
     316:	24 81       	ldd	r18, Z+4	; 0x04
     318:	2f 7d       	andi	r18, 0xDF	; 223
     31a:	24 83       	std	Z+4, r18	; 0x04
     31c:	e6 e0       	ldi	r30, 0x06	; 6
     31e:	f8 e2       	ldi	r31, 0x28	; 40
     320:	20 81       	ld	r18, Z
     322:	21 60       	ori	r18, 0x01	; 1
     324:	20 83       	st	Z, r18
     326:	e0 e2       	ldi	r30, 0x20	; 32
     328:	f4 e0       	ldi	r31, 0x04	; 4
     32a:	24 81       	ldd	r18, Z+4	; 0x04
     32c:	20 7f       	andi	r18, 0xF0	; 240
     32e:	92 95       	swap	r25
     330:	9f 70       	andi	r25, 0x0F	; 15
     332:	92 2b       	or	r25, r18
     334:	94 83       	std	Z+4, r25	; 0x04
     336:	91 e0       	ldi	r25, 0x01	; 1
     338:	ba c0       	rjmp	.+372    	; 0x4ae <__LOCK_REGION_LENGTH__+0xae>
     33a:	91 30       	cpi	r25, 0x01	; 1
     33c:	39 f4       	brne	.+14     	; 0x34c <_Z10lcd_updatev+0x180>
     33e:	e0 e2       	ldi	r30, 0x20	; 32
     340:	f4 e0       	ldi	r31, 0x04	; 4
     342:	94 81       	ldd	r25, Z+4	; 0x04
     344:	90 61       	ori	r25, 0x10	; 16
     346:	94 83       	std	Z+4, r25	; 0x04
     348:	92 e0       	ldi	r25, 0x02	; 2
     34a:	b1 c0       	rjmp	.+354    	; 0x4ae <__LOCK_REGION_LENGTH__+0xae>
     34c:	92 30       	cpi	r25, 0x02	; 2
     34e:	81 f4       	brne	.+32     	; 0x370 <_Z10lcd_updatev+0x1a4>
     350:	e0 e2       	ldi	r30, 0x20	; 32
     352:	f4 e0       	ldi	r31, 0x04	; 4
     354:	94 81       	ldd	r25, Z+4	; 0x04
     356:	9f 7e       	andi	r25, 0xEF	; 239
     358:	94 83       	std	Z+4, r25	; 0x04
     35a:	90 91 05 28 	lds	r25, 0x2805	; 0x802805 <_ZZ10lcd_updatevE6status>
     35e:	99 23       	and	r25, r25
     360:	0c f4       	brge	.+2      	; 0x364 <_Z10lcd_updatev+0x198>
     362:	a2 c0       	rjmp	.+324    	; 0x4a8 <__LOCK_REGION_LENGTH__+0xa8>
     364:	90 91 06 28 	lds	r25, 0x2806	; 0x802806 <_ZZ10lcd_updatevE6status+0x1>
     368:	90 ff       	sbrs	r25, 0
     36a:	a0 c0       	rjmp	.+320    	; 0x4ac <__LOCK_REGION_LENGTH__+0xac>
     36c:	93 e0       	ldi	r25, 0x03	; 3
     36e:	9f c0       	rjmp	.+318    	; 0x4ae <__LOCK_REGION_LENGTH__+0xae>
     370:	93 30       	cpi	r25, 0x03	; 3
     372:	09 f0       	breq	.+2      	; 0x376 <_Z10lcd_updatev+0x1aa>
     374:	95 c0       	rjmp	.+298    	; 0x4a0 <__LOCK_REGION_LENGTH__+0xa0>
     376:	20 91 05 28 	lds	r18, 0x2805	; 0x802805 <_ZZ10lcd_updatevE6status>
     37a:	20 78       	andi	r18, 0x80	; 128
     37c:	e1 f0       	breq	.+56     	; 0x3b6 <_Z10lcd_updatev+0x1ea>
     37e:	30 91 06 28 	lds	r19, 0x2806	; 0x802806 <_ZZ10lcd_updatevE6status+0x1>
     382:	30 ff       	sbrs	r19, 0
     384:	18 c0       	rjmp	.+48     	; 0x3b6 <_Z10lcd_updatev+0x1ea>
     386:	e6 e0       	ldi	r30, 0x06	; 6
     388:	f8 e2       	ldi	r31, 0x28	; 40
     38a:	23 2f       	mov	r18, r19
     38c:	2e 7f       	andi	r18, 0xFE	; 254
     38e:	20 83       	st	Z, r18
     390:	30 91 04 28 	lds	r19, 0x2804	; 0x802804 <__data_end>
     394:	a0 e2       	ldi	r26, 0x20	; 32
     396:	b4 e0       	ldi	r27, 0x04	; 4
     398:	14 96       	adiw	r26, 0x04	; 4
     39a:	4c 91       	ld	r20, X
     39c:	14 97       	sbiw	r26, 0x04	; 4
     39e:	40 7f       	andi	r20, 0xF0	; 240
     3a0:	3f 70       	andi	r19, 0x0F	; 15
     3a2:	34 2b       	or	r19, r20
     3a4:	14 96       	adiw	r26, 0x04	; 4
     3a6:	3c 93       	st	X, r19
     3a8:	9c 2f       	mov	r25, r28
     3aa:	99 0f       	add	r25, r25
     3ac:	21 7c       	andi	r18, 0xC1	; 193
     3ae:	29 2b       	or	r18, r25
     3b0:	20 83       	st	Z, r18
     3b2:	91 e0       	ldi	r25, 0x01	; 1
     3b4:	7c c0       	rjmp	.+248    	; 0x4ae <__LOCK_REGION_LENGTH__+0xae>
     3b6:	22 23       	and	r18, r18
     3b8:	11 f1       	breq	.+68     	; 0x3fe <_Z10lcd_updatev+0x232>
     3ba:	90 91 06 28 	lds	r25, 0x2806	; 0x802806 <_ZZ10lcd_updatevE6status+0x1>
     3be:	90 fd       	sbrc	r25, 0
     3c0:	1e c0       	rjmp	.+60     	; 0x3fe <_Z10lcd_updatev+0x232>
     3c2:	e0 e2       	ldi	r30, 0x20	; 32
     3c4:	f4 e0       	ldi	r31, 0x04	; 4
     3c6:	94 81       	ldd	r25, Z+4	; 0x04
     3c8:	90 62       	ori	r25, 0x20	; 32
     3ca:	94 83       	std	Z+4, r25	; 0x04
     3cc:	a5 e0       	ldi	r26, 0x05	; 5
     3ce:	b8 e2       	ldi	r27, 0x28	; 40
     3d0:	9c 91       	ld	r25, X
     3d2:	9f 77       	andi	r25, 0x7F	; 127
     3d4:	9c 93       	st	X, r25
     3d6:	a6 e0       	ldi	r26, 0x06	; 6
     3d8:	b8 e2       	ldi	r27, 0x28	; 40
     3da:	9c 91       	ld	r25, X
     3dc:	91 60       	ori	r25, 0x01	; 1
     3de:	9c 93       	st	X, r25
     3e0:	ac 2f       	mov	r26, r28
     3e2:	b0 e0       	ldi	r27, 0x00	; 0
     3e4:	a3 5f       	subi	r26, 0xF3	; 243
     3e6:	b7 4d       	sbci	r27, 0xD7	; 215
     3e8:	9c 91       	ld	r25, X
     3ea:	90 93 04 28 	sts	0x2804, r25	; 0x802804 <__data_end>
     3ee:	24 81       	ldd	r18, Z+4	; 0x04
     3f0:	20 7f       	andi	r18, 0xF0	; 240
     3f2:	92 95       	swap	r25
     3f4:	9f 70       	andi	r25, 0x0F	; 15
     3f6:	92 2b       	or	r25, r18
     3f8:	94 83       	std	Z+4, r25	; 0x04
     3fa:	91 e0       	ldi	r25, 0x01	; 1
     3fc:	58 c0       	rjmp	.+176    	; 0x4ae <__LOCK_REGION_LENGTH__+0xae>
     3fe:	21 11       	cpse	r18, r1
     400:	4a c0       	rjmp	.+148    	; 0x496 <__LOCK_REGION_LENGTH__+0x96>
     402:	90 91 06 28 	lds	r25, 0x2806	; 0x802806 <_ZZ10lcd_updatevE6status+0x1>
     406:	90 ff       	sbrs	r25, 0
     408:	46 c0       	rjmp	.+140    	; 0x496 <__LOCK_REGION_LENGTH__+0x96>
     40a:	e6 e0       	ldi	r30, 0x06	; 6
     40c:	f8 e2       	ldi	r31, 0x28	; 40
     40e:	9e 7f       	andi	r25, 0xFE	; 254
     410:	90 83       	st	Z, r25
     412:	30 91 04 28 	lds	r19, 0x2804	; 0x802804 <__data_end>
     416:	e0 e2       	ldi	r30, 0x20	; 32
     418:	f4 e0       	ldi	r31, 0x04	; 4
     41a:	94 81       	ldd	r25, Z+4	; 0x04
     41c:	29 2f       	mov	r18, r25
     41e:	20 7f       	andi	r18, 0xF0	; 240
     420:	93 2f       	mov	r25, r19
     422:	9f 70       	andi	r25, 0x0F	; 15
     424:	92 2b       	or	r25, r18
     426:	94 83       	std	Z+4, r25	; 0x04
     428:	ec 2f       	mov	r30, r28
     42a:	f0 e0       	ldi	r31, 0x00	; 0
     42c:	e3 5f       	subi	r30, 0xF3	; 243
     42e:	f7 4d       	sbci	r31, 0xD7	; 215
     430:	90 81       	ld	r25, Z
     432:	39 13       	cpse	r19, r25
     434:	18 c0       	rjmp	.+48     	; 0x466 <__LOCK_REGION_LENGTH__+0x66>
     436:	ec 2f       	mov	r30, r28
     438:	e8 71       	andi	r30, 0x18	; 24
     43a:	f0 e0       	ldi	r31, 0x00	; 0
     43c:	f5 95       	asr	r31
     43e:	e7 95       	ror	r30
     440:	f5 95       	asr	r31
     442:	e7 95       	ror	r30
     444:	f5 95       	asr	r31
     446:	e7 95       	ror	r30
     448:	9c 2f       	mov	r25, r28
     44a:	97 70       	andi	r25, 0x07	; 7
     44c:	21 e0       	ldi	r18, 0x01	; 1
     44e:	30 e0       	ldi	r19, 0x00	; 0
     450:	02 c0       	rjmp	.+4      	; 0x456 <__LOCK_REGION_LENGTH__+0x56>
     452:	22 0f       	add	r18, r18
     454:	33 1f       	adc	r19, r19
     456:	9a 95       	dec	r25
     458:	e2 f7       	brpl	.-8      	; 0x452 <__LOCK_REGION_LENGTH__+0x52>
     45a:	e7 5f       	subi	r30, 0xF7	; 247
     45c:	f7 4d       	sbci	r31, 0xD7	; 215
     45e:	20 95       	com	r18
     460:	90 81       	ld	r25, Z
     462:	92 23       	and	r25, r18
     464:	90 83       	st	Z, r25
     466:	90 91 06 28 	lds	r25, 0x2806	; 0x802806 <_ZZ10lcd_updatevE6status+0x1>
     46a:	96 95       	lsr	r25
     46c:	9f 71       	andi	r25, 0x1F	; 31
     46e:	29 2f       	mov	r18, r25
     470:	30 e0       	ldi	r19, 0x00	; 0
     472:	2f 5f       	subi	r18, 0xFF	; 255
     474:	3f 4f       	sbci	r19, 0xFF	; 255
     476:	20 32       	cpi	r18, 0x20	; 32
     478:	31 05       	cpc	r19, r1
     47a:	14 f4       	brge	.+4      	; 0x480 <__LOCK_REGION_LENGTH__+0x80>
     47c:	9f 5f       	subi	r25, 0xFF	; 255
     47e:	01 c0       	rjmp	.+2      	; 0x482 <__LOCK_REGION_LENGTH__+0x82>
     480:	90 e0       	ldi	r25, 0x00	; 0
     482:	e6 e0       	ldi	r30, 0x06	; 6
     484:	f8 e2       	ldi	r31, 0x28	; 40
     486:	9f 71       	andi	r25, 0x1F	; 31
     488:	99 0f       	add	r25, r25
     48a:	20 81       	ld	r18, Z
     48c:	21 7c       	andi	r18, 0xC1	; 193
     48e:	92 2b       	or	r25, r18
     490:	90 83       	st	Z, r25
     492:	91 e0       	ldi	r25, 0x01	; 1
     494:	0c c0       	rjmp	.+24     	; 0x4ae <__LOCK_REGION_LENGTH__+0xae>
     496:	93 e6       	ldi	r25, 0x63	; 99
     498:	90 93 07 28 	sts	0x2807, r25	; 0x802807 <lcd_error>
     49c:	91 e0       	ldi	r25, 0x01	; 1
     49e:	07 c0       	rjmp	.+14     	; 0x4ae <__LOCK_REGION_LENGTH__+0xae>
     4a0:	23 e6       	ldi	r18, 0x63	; 99
     4a2:	20 93 07 28 	sts	0x2807, r18	; 0x802807 <lcd_error>
     4a6:	03 c0       	rjmp	.+6      	; 0x4ae <__LOCK_REGION_LENGTH__+0xae>
     4a8:	93 e0       	ldi	r25, 0x03	; 3
     4aa:	01 c0       	rjmp	.+2      	; 0x4ae <__LOCK_REGION_LENGTH__+0xae>
     4ac:	90 e0       	ldi	r25, 0x00	; 0
     4ae:	e5 e0       	ldi	r30, 0x05	; 5
     4b0:	f8 e2       	ldi	r31, 0x28	; 40
     4b2:	29 2f       	mov	r18, r25
     4b4:	22 95       	swap	r18
     4b6:	22 0f       	add	r18, r18
     4b8:	20 7e       	andi	r18, 0xE0	; 224
     4ba:	90 81       	ld	r25, Z
     4bc:	9f 79       	andi	r25, 0x9F	; 159
     4be:	92 2b       	or	r25, r18
     4c0:	8f 71       	andi	r24, 0x1F	; 31
     4c2:	90 7e       	andi	r25, 0xE0	; 224
     4c4:	89 2b       	or	r24, r25
     4c6:	80 83       	st	Z, r24
     4c8:	cf 91       	pop	r28
     4ca:	08 95       	ret

000004cc <_Z14lcd_print_charhh>:
     4cc:	81 32       	cpi	r24, 0x21	; 33
     4ce:	20 f0       	brcs	.+8      	; 0x4d8 <_Z14lcd_print_charhh+0xc>
     4d0:	8a e0       	ldi	r24, 0x0A	; 10
     4d2:	80 93 07 28 	sts	0x2807, r24	; 0x802807 <lcd_error>
     4d6:	08 95       	ret
     4d8:	28 2f       	mov	r18, r24
     4da:	30 e0       	ldi	r19, 0x00	; 0
     4dc:	f9 01       	movw	r30, r18
     4de:	e3 5f       	subi	r30, 0xF3	; 243
     4e0:	f7 4d       	sbci	r31, 0xD7	; 215
     4e2:	90 81       	ld	r25, Z
     4e4:	96 17       	cp	r25, r22
     4e6:	e1 f0       	breq	.+56     	; 0x520 <_Z14lcd_print_charhh+0x54>
     4e8:	f9 01       	movw	r30, r18
     4ea:	e3 5f       	subi	r30, 0xF3	; 243
     4ec:	f7 4d       	sbci	r31, 0xD7	; 215
     4ee:	60 83       	st	Z, r22
     4f0:	e8 2f       	mov	r30, r24
     4f2:	e8 71       	andi	r30, 0x18	; 24
     4f4:	f0 e0       	ldi	r31, 0x00	; 0
     4f6:	f5 95       	asr	r31
     4f8:	e7 95       	ror	r30
     4fa:	f5 95       	asr	r31
     4fc:	e7 95       	ror	r30
     4fe:	f5 95       	asr	r31
     500:	e7 95       	ror	r30
     502:	87 70       	andi	r24, 0x07	; 7
     504:	21 e0       	ldi	r18, 0x01	; 1
     506:	30 e0       	ldi	r19, 0x00	; 0
     508:	a9 01       	movw	r20, r18
     50a:	02 c0       	rjmp	.+4      	; 0x510 <_Z14lcd_print_charhh+0x44>
     50c:	44 0f       	add	r20, r20
     50e:	55 1f       	adc	r21, r21
     510:	8a 95       	dec	r24
     512:	e2 f7       	brpl	.-8      	; 0x50c <_Z14lcd_print_charhh+0x40>
     514:	ca 01       	movw	r24, r20
     516:	e7 5f       	subi	r30, 0xF7	; 247
     518:	f7 4d       	sbci	r31, 0xD7	; 215
     51a:	90 81       	ld	r25, Z
     51c:	89 2b       	or	r24, r25
     51e:	80 83       	st	Z, r24
     520:	08 95       	ret

00000522 <_Z13lcd_print_strhPKc>:
     522:	0f 93       	push	r16
     524:	1f 93       	push	r17
     526:	cf 93       	push	r28
     528:	df 93       	push	r29
     52a:	61 15       	cp	r22, r1
     52c:	71 05       	cpc	r23, r1
     52e:	b1 f0       	breq	.+44     	; 0x55c <_Z13lcd_print_strhPKc+0x3a>
     530:	8b 01       	movw	r16, r22
     532:	d8 2f       	mov	r29, r24
     534:	c0 e0       	ldi	r28, 0x00	; 0
     536:	2c 2f       	mov	r18, r28
     538:	30 e0       	ldi	r19, 0x00	; 0
     53a:	2d 0f       	add	r18, r29
     53c:	31 1d       	adc	r19, r1
     53e:	21 32       	cpi	r18, 0x21	; 33
     540:	31 05       	cpc	r19, r1
     542:	64 f4       	brge	.+24     	; 0x55c <_Z13lcd_print_strhPKc+0x3a>
     544:	f8 01       	movw	r30, r16
     546:	ec 0f       	add	r30, r28
     548:	f1 1d       	adc	r31, r1
     54a:	60 81       	ld	r22, Z
     54c:	66 23       	and	r22, r22
     54e:	31 f0       	breq	.+12     	; 0x55c <_Z13lcd_print_strhPKc+0x3a>
     550:	8c 2f       	mov	r24, r28
     552:	8d 0f       	add	r24, r29
     554:	0e 94 66 02 	call	0x4cc	; 0x4cc <_Z14lcd_print_charhh>
     558:	cf 5f       	subi	r28, 0xFF	; 255
     55a:	ed cf       	rjmp	.-38     	; 0x536 <_Z13lcd_print_strhPKc+0x14>
     55c:	df 91       	pop	r29
     55e:	cf 91       	pop	r28
     560:	1f 91       	pop	r17
     562:	0f 91       	pop	r16
     564:	08 95       	ret

00000566 <_Z13lcd_print_u16hj>:
**	RIGHT 	|123		LEFT	|123
**			|  1			 	|1
****************************************************************************/

void lcd_print_u16( uint8_t pos, uint16_t num )
{
     566:	ff 92       	push	r15
     568:	0f 93       	push	r16
     56a:	1f 93       	push	r17
     56c:	cf 93       	push	r28
     56e:	df 93       	push	r29
     570:	cd b7       	in	r28, 0x3d	; 61
     572:	de b7       	in	r29, 0x3e	; 62
     574:	60 97       	sbiw	r28, 0x10	; 16
     576:	cd bf       	out	0x3d, r28	; 61
     578:	de bf       	out	0x3e, r29	; 62
     57a:	f8 2e       	mov	r15, r24
     57c:	8b 01       	movw	r16, r22
            {
                //Bad parameters
                return 0;
            }
            //If: number is small enough
            if (num <= UINT8_MAX)
     57e:	6f 3f       	cpi	r22, 0xFF	; 255
     580:	71 05       	cpc	r23, r1
     582:	11 f0       	breq	.+4      	; 0x588 <_Z13lcd_print_u16hj+0x22>
     584:	08 f0       	brcs	.+2      	; 0x588 <_Z13lcd_print_u16hj+0x22>
     586:	4e c0       	rjmp	.+156    	; 0x624 <_Z13lcd_print_u16hj+0xbe>
            const uint8_t base[Config::DIGIT8] =
            {
                100,
                10,
                1
            };
     588:	84 e6       	ldi	r24, 0x64	; 100
     58a:	8f 83       	std	Y+7, r24	; 0x07
     58c:	8a e0       	ldi	r24, 0x0A	; 10
     58e:	88 87       	std	Y+8, r24	; 0x08
     590:	81 e0       	ldi	r24, 0x01	; 1
     592:	89 87       	std	Y+9, r24	; 0x09
            //Fast counter
            uint8_t t, tmp;
            //index to the string
            uint8_t index = 0;
     594:	20 e0       	ldi	r18, 0x00	; 0
            //----------------------------------------------------------------
            //	BODY
            //----------------------------------------------------------------

            //For all bases
            for (t = 0;t < Config::DIGIT8; t++)
     596:	30 e0       	ldi	r19, 0x00	; 0
     598:	33 30       	cpi	r19, 0x03	; 3
     59a:	d8 f5       	brcc	.+118    	; 0x612 <_Z13lcd_print_u16hj+0xac>
            {
                //If the base is bigger or equal than the number (division is meaningful)
                if (base[t] <= num)
     59c:	e7 e0       	ldi	r30, 0x07	; 7
     59e:	f0 e0       	ldi	r31, 0x00	; 0
     5a0:	ec 0f       	add	r30, r28
     5a2:	fd 1f       	adc	r31, r29
     5a4:	e3 0f       	add	r30, r19
     5a6:	f1 1d       	adc	r31, r1
     5a8:	40 81       	ld	r20, Z
     5aa:	04 17       	cp	r16, r20
     5ac:	d8 f0       	brcs	.+54     	; 0x5e4 <_Z13lcd_print_u16hj+0x7e>
                {
                    //Divide number by base, get the digit. Bounded to 0 to 9.
                    tmp = num / base[t];
     5ae:	80 2f       	mov	r24, r16
     5b0:	64 2f       	mov	r22, r20
     5b2:	0e 94 1f 0c 	call	0x183e	; 0x183e <__udivmodqi4>
                    //If: index would overflow. Need an extra slot for the final teminator
                    if ( (SAFETY_CHECKS == true) && (index >= (str_len -Config::STRING_TERMINATOR_SIZE)) )
     5b6:	62 2f       	mov	r22, r18
     5b8:	70 e0       	ldi	r23, 0x00	; 0
     5ba:	64 30       	cpi	r22, 0x04	; 4
     5bc:	71 05       	cpc	r23, r1
     5be:	1c f0       	brlt	.+6      	; 0x5c6 <_Z13lcd_print_u16hj+0x60>
                    {
                        //Put a terminator in first position for safety
                        str[0] = Config::TERMINATOR;
     5c0:	19 82       	std	Y+1, r1	; 0x01
                        //Overflow occurred. Return 0 digits written
                        DRETURN_ARG("ERR: Not enough space: %d\n", str_len);
                        return 0;
     5c2:	00 e0       	ldi	r16, 0x00	; 0
     5c4:	8b c0       	rjmp	.+278    	; 0x6dc <_Z13lcd_print_u16hj+0x176>
                    }
                    //Write the digit
                    str[ index ] = '0' +tmp;
     5c6:	e1 e0       	ldi	r30, 0x01	; 1
     5c8:	f0 e0       	ldi	r31, 0x00	; 0
     5ca:	ec 0f       	add	r30, r28
     5cc:	fd 1f       	adc	r31, r29
     5ce:	e2 0f       	add	r30, r18
     5d0:	f1 1d       	adc	r31, r1
     5d2:	90 e3       	ldi	r25, 0x30	; 48
     5d4:	98 0f       	add	r25, r24
     5d6:	90 83       	st	Z, r25
                    //Update the number
                    num = num - base[t] * tmp;
     5d8:	48 9f       	mul	r20, r24
     5da:	00 19       	sub	r16, r0
     5dc:	11 24       	eor	r1, r1
                    //I have found a meaningful digit
                    flag = false;
                    //Jump to the next digit
                    index++;
     5de:	2f 5f       	subi	r18, 0xFF	; 255
                    //Write the digit
                    str[ index ] = '0' +tmp;
                    //Update the number
                    num = num - base[t] * tmp;
                    //I have found a meaningful digit
                    flag = false;
     5e0:	80 e0       	ldi	r24, 0x00	; 0
     5e2:	15 c0       	rjmp	.+42     	; 0x60e <_Z13lcd_print_u16hj+0xa8>
                    //Jump to the next digit
                    index++;
                }
                //If: The base is smaller then the number, and I have yet to find a non zero digit, and I'm not to the last digit
                else if ( (flag == true) && (t != (Config::DIGIT8 -1)) )
     5e4:	88 23       	and	r24, r24
     5e6:	11 f0       	breq	.+4      	; 0x5ec <_Z13lcd_print_u16hj+0x86>
     5e8:	32 30       	cpi	r19, 0x02	; 2
     5ea:	89 f4       	brne	.+34     	; 0x60e <_Z13lcd_print_u16hj+0xa8>
                }
                //If: I have a meaningful zero
                else
                {
                    //If: index would overflow. Need an extra slot for the final teminator
                    if ( (SAFETY_CHECKS == true) && (index >= (str_len -Config::STRING_TERMINATOR_SIZE)) )
     5ec:	42 2f       	mov	r20, r18
     5ee:	50 e0       	ldi	r21, 0x00	; 0
     5f0:	44 30       	cpi	r20, 0x04	; 4
     5f2:	51 05       	cpc	r21, r1
     5f4:	1c f0       	brlt	.+6      	; 0x5fc <_Z13lcd_print_u16hj+0x96>
                    {
                        //Put a terminator in first position for safety
                        str[0] = Config::TERMINATOR;
     5f6:	19 82       	std	Y+1, r1	; 0x01
                        //Overflow occurred. Return 0 digits written
                        DRETURN_ARG("ERR: Not enough space: %d\n", str_len);
                        return 0;
     5f8:	00 e0       	ldi	r16, 0x00	; 0
     5fa:	70 c0       	rjmp	.+224    	; 0x6dc <_Z13lcd_print_u16hj+0x176>
                    }
                    //It's a zero
                    str[ index ] = '0';
     5fc:	e1 e0       	ldi	r30, 0x01	; 1
     5fe:	f0 e0       	ldi	r31, 0x00	; 0
     600:	ec 0f       	add	r30, r28
     602:	fd 1f       	adc	r31, r29
     604:	e2 0f       	add	r30, r18
     606:	f1 1d       	adc	r31, r1
     608:	90 e3       	ldi	r25, 0x30	; 48
     60a:	90 83       	st	Z, r25
                    //Jump to the next digit
                    index++;
     60c:	2f 5f       	subi	r18, 0xFF	; 255
            //----------------------------------------------------------------
            //	BODY
            //----------------------------------------------------------------

            //For all bases
            for (t = 0;t < Config::DIGIT8; t++)
     60e:	3f 5f       	subi	r19, 0xFF	; 255
     610:	c3 cf       	rjmp	.-122    	; 0x598 <_Z13lcd_print_u16hj+0x32>
            //----------------------------------------------------------------
            //	RETURN
            //----------------------------------------------------------------

            //Append the terminator
            str[ index ] = Config::TERMINATOR;
     612:	e1 e0       	ldi	r30, 0x01	; 1
     614:	f0 e0       	ldi	r31, 0x00	; 0
     616:	ec 0f       	add	r30, r28
     618:	fd 1f       	adc	r31, r29
     61a:	e2 0f       	add	r30, r18
     61c:	f1 1d       	adc	r31, r1
     61e:	10 82       	st	Z, r1
            DRETURN_ARG("digits written: %d | output >%s<\n", index, str);
            return index;
     620:	02 2f       	mov	r16, r18
     622:	5c c0       	rjmp	.+184    	; 0x6dc <_Z13lcd_print_u16hj+0x176>
                10000,
                1000,
                100,
                10,
                1
            };
     624:	8a e0       	ldi	r24, 0x0A	; 10
     626:	e2 e2       	ldi	r30, 0x22	; 34
     628:	fa e5       	ldi	r31, 0x5A	; 90
     62a:	de 01       	movw	r26, r28
     62c:	17 96       	adiw	r26, 0x07	; 7
     62e:	01 90       	ld	r0, Z+
     630:	0d 92       	st	X+, r0
     632:	8a 95       	dec	r24
     634:	e1 f7       	brne	.-8      	; 0x62e <_Z13lcd_print_u16hj+0xc8>
            //Fast counter
            uint8_t t, tmp;
            //index to the string
            uint8_t index = 0;
            //flag used to blank non meaningful zeros
            bool flag = true;
     636:	81 e0       	ldi	r24, 0x01	; 1
                1
            };
            //Fast counter
            uint8_t t, tmp;
            //index to the string
            uint8_t index = 0;
     638:	20 e0       	ldi	r18, 0x00	; 0
            //----------------------------------------------------------------
            //	BODY
            //----------------------------------------------------------------

            //For all bases
            for (t = 0;t < Config::DIGIT16; t++)
     63a:	30 e0       	ldi	r19, 0x00	; 0
     63c:	35 30       	cpi	r19, 0x05	; 5
     63e:	08 f0       	brcs	.+2      	; 0x642 <_Z13lcd_print_u16hj+0xdc>
     640:	45 c0       	rjmp	.+138    	; 0x6cc <_Z13lcd_print_u16hj+0x166>
            {
                //If the base is bigger or equal than the number (division is meaningful)
                if (base[t] <= num)
     642:	e3 2f       	mov	r30, r19
     644:	f0 e0       	ldi	r31, 0x00	; 0
     646:	ee 0f       	add	r30, r30
     648:	ff 1f       	adc	r31, r31
     64a:	41 e0       	ldi	r20, 0x01	; 1
     64c:	50 e0       	ldi	r21, 0x00	; 0
     64e:	4c 0f       	add	r20, r28
     650:	5d 1f       	adc	r21, r29
     652:	e4 0f       	add	r30, r20
     654:	f5 1f       	adc	r31, r21
     656:	06 80       	ldd	r0, Z+6	; 0x06
     658:	f7 81       	ldd	r31, Z+7	; 0x07
     65a:	e0 2d       	mov	r30, r0
     65c:	0e 17       	cp	r16, r30
     65e:	1f 07       	cpc	r17, r31
     660:	f0 f0       	brcs	.+60     	; 0x69e <_Z13lcd_print_u16hj+0x138>
                {
                    //Divide number by base, get the digit. Bounded to 0 to 9.
                    tmp = num / base[t];
     662:	c8 01       	movw	r24, r16
     664:	bf 01       	movw	r22, r30
     666:	0e 94 2b 0c 	call	0x1856	; 0x1856 <__udivmodhi4>
                    //If: index would overflow. Need an extra slot for the final teminator
                    if ( (SAFETY_CHECKS == true) && (index >= (str_len -Config::STRING_TERMINATOR_SIZE)) )
     66a:	82 2f       	mov	r24, r18
     66c:	90 e0       	ldi	r25, 0x00	; 0
     66e:	04 97       	sbiw	r24, 0x04	; 4
     670:	1c f0       	brlt	.+6      	; 0x678 <_Z13lcd_print_u16hj+0x112>
                    {
                        //Put a terminator in first position for safety
                        str[0] = Config::TERMINATOR;
     672:	19 82       	std	Y+1, r1	; 0x01
                        //Overflow occurred. Return 0 digits written
                        DRETURN_ARG("ERR: Not enough space: %d\n", str_len);
                        return 0;
     674:	00 e0       	ldi	r16, 0x00	; 0
     676:	32 c0       	rjmp	.+100    	; 0x6dc <_Z13lcd_print_u16hj+0x176>
                    }
                    //Write the digit
                    str[ index ] = '0' +tmp;
     678:	a1 e0       	ldi	r26, 0x01	; 1
     67a:	b0 e0       	ldi	r27, 0x00	; 0
     67c:	ac 0f       	add	r26, r28
     67e:	bd 1f       	adc	r27, r29
     680:	a2 0f       	add	r26, r18
     682:	b1 1d       	adc	r27, r1
     684:	80 e3       	ldi	r24, 0x30	; 48
     686:	86 0f       	add	r24, r22
     688:	8c 93       	st	X, r24
                    //Update the number
                    num = num - base[t] * tmp;
     68a:	6e 9f       	mul	r22, r30
     68c:	c0 01       	movw	r24, r0
     68e:	6f 9f       	mul	r22, r31
     690:	90 0d       	add	r25, r0
     692:	11 24       	eor	r1, r1
     694:	08 1b       	sub	r16, r24
     696:	19 0b       	sbc	r17, r25
                    //I have found a meaningful digit
                    flag = false;
                    //Jump to the next digit
                    index++;
     698:	2f 5f       	subi	r18, 0xFF	; 255
                    //Write the digit
                    str[ index ] = '0' +tmp;
                    //Update the number
                    num = num - base[t] * tmp;
                    //I have found a meaningful digit
                    flag = false;
     69a:	80 e0       	ldi	r24, 0x00	; 0
     69c:	15 c0       	rjmp	.+42     	; 0x6c8 <_Z13lcd_print_u16hj+0x162>
                    //Jump to the next digit
                    index++;
                }
                //If: The base is smaller then the number, and I have yet to find a non zero digit, and I'm not to the last digit
                else if ( (flag == true) && (t != (Config::DIGIT16 -1)) )
     69e:	88 23       	and	r24, r24
     6a0:	11 f0       	breq	.+4      	; 0x6a6 <_Z13lcd_print_u16hj+0x140>
     6a2:	34 30       	cpi	r19, 0x04	; 4
     6a4:	89 f4       	brne	.+34     	; 0x6c8 <_Z13lcd_print_u16hj+0x162>
                }
                //If: I have a meaningful zero
                else
                {
                    //If: index would overflow. Need an extra slot for the final teminator
                    if ( (SAFETY_CHECKS == true) && (index >= (str_len -Config::STRING_TERMINATOR_SIZE)) )
     6a6:	42 2f       	mov	r20, r18
     6a8:	50 e0       	ldi	r21, 0x00	; 0
     6aa:	44 30       	cpi	r20, 0x04	; 4
     6ac:	51 05       	cpc	r21, r1
     6ae:	1c f0       	brlt	.+6      	; 0x6b6 <_Z13lcd_print_u16hj+0x150>
                    {
                        //Put a terminator in first position for safety
                        str[0] = Config::TERMINATOR;
     6b0:	19 82       	std	Y+1, r1	; 0x01
                        //Overflow occurred. Return 0 digits written
                        DRETURN_ARG("ERR: Not enough space: %d\n", str_len);
                        return 0;
     6b2:	00 e0       	ldi	r16, 0x00	; 0
     6b4:	13 c0       	rjmp	.+38     	; 0x6dc <_Z13lcd_print_u16hj+0x176>
                    }
                    //It's a zero
                    str[ index ] = '0';
     6b6:	e1 e0       	ldi	r30, 0x01	; 1
     6b8:	f0 e0       	ldi	r31, 0x00	; 0
     6ba:	ec 0f       	add	r30, r28
     6bc:	fd 1f       	adc	r31, r29
     6be:	e2 0f       	add	r30, r18
     6c0:	f1 1d       	adc	r31, r1
     6c2:	90 e3       	ldi	r25, 0x30	; 48
     6c4:	90 83       	st	Z, r25
                    //Jump to the next digit
                    index++;
     6c6:	2f 5f       	subi	r18, 0xFF	; 255
            //----------------------------------------------------------------
            //	BODY
            //----------------------------------------------------------------

            //For all bases
            for (t = 0;t < Config::DIGIT16; t++)
     6c8:	3f 5f       	subi	r19, 0xFF	; 255
     6ca:	b8 cf       	rjmp	.-144    	; 0x63c <_Z13lcd_print_u16hj+0xd6>
            //----------------------------------------------------------------
            //	RETURN
            //----------------------------------------------------------------

            //Append the terminator
            str[ index ] = Config::TERMINATOR;
     6cc:	e1 e0       	ldi	r30, 0x01	; 1
     6ce:	f0 e0       	ldi	r31, 0x00	; 0
     6d0:	ec 0f       	add	r30, r28
     6d2:	fd 1f       	adc	r31, r29
     6d4:	e2 0f       	add	r30, r18
     6d6:	f1 1d       	adc	r31, r1
     6d8:	10 82       	st	Z, r1
            DRETURN_ARG("digits written: %d | output >%s<\n", index, str);
            return index;
     6da:	02 2f       	mov	r16, r18
	//***********************************************************************

	//convert the number
	ret = User::String::num_to_str( num, User::String::Config::DIGIT16, str );
	//For: every digit
	for (u8t = 0;u8t < User::String::Config::DIGIT16; u8t++)
     6dc:	10 e0       	ldi	r17, 0x00	; 0
     6de:	15 30       	cpi	r17, 0x05	; 5
     6e0:	38 f5       	brcc	.+78     	; 0x730 <_Z13lcd_print_u16hj+0x1ca>
	{
		//If: left alignment
		if (IS_BIT_ONE( lcd_cfg_flags, LCD_ADJ_FLAG ))
     6e2:	80 91 08 28 	lds	r24, 0x2808	; 0x802808 <lcd_cfg_flags>
     6e6:	80 ff       	sbrs	r24, 0
     6e8:	0a c0       	rjmp	.+20     	; 0x6fe <_Z13lcd_print_u16hj+0x198>
		{
			//If: I'm outside the number
			if (u8t >= ret)
     6ea:	10 17       	cp	r17, r16
     6ec:	c0 f4       	brcc	.+48     	; 0x71e <_Z13lcd_print_u16hj+0x1b8>
				u8t1 = ' ';
			}
			else
			{
				//Print number
				u8t1 = str[ u8t ];
     6ee:	e1 e0       	ldi	r30, 0x01	; 1
     6f0:	f0 e0       	ldi	r31, 0x00	; 0
     6f2:	ec 0f       	add	r30, r28
     6f4:	fd 1f       	adc	r31, r29
     6f6:	e1 0f       	add	r30, r17
     6f8:	f1 1d       	adc	r31, r1
     6fa:	60 81       	ld	r22, Z
     6fc:	13 c0       	rjmp	.+38     	; 0x724 <_Z13lcd_print_u16hj+0x1be>
		}	//End If: left alignment
		//If: right alignment
		else
		{
			//If: I'm outside the number (yes, that's the condition,right adjustment is messy)
			if ((u8t +ret) < User::String::Config::DIGIT16)
     6fe:	80 2f       	mov	r24, r16
     700:	90 e0       	ldi	r25, 0x00	; 0
     702:	81 0f       	add	r24, r17
     704:	91 1d       	adc	r25, r1
     706:	85 30       	cpi	r24, 0x05	; 5
     708:	91 05       	cpc	r25, r1
     70a:	5c f0       	brlt	.+22     	; 0x722 <_Z13lcd_print_u16hj+0x1bc>
			}
			//If: I'm writing a digit
			else
			{
				//print number, I have to write digit in order with this adjust
				u8t1 = str[ u8t +ret -User::String::Config::DIGIT16 ];
     70c:	05 97       	sbiw	r24, 0x05	; 5
     70e:	e1 e0       	ldi	r30, 0x01	; 1
     710:	f0 e0       	ldi	r31, 0x00	; 0
     712:	ec 0f       	add	r30, r28
     714:	fd 1f       	adc	r31, r29
     716:	e8 0f       	add	r30, r24
     718:	f9 1f       	adc	r31, r25
     71a:	60 81       	ld	r22, Z
     71c:	03 c0       	rjmp	.+6      	; 0x724 <_Z13lcd_print_u16hj+0x1be>
		{
			//If: I'm outside the number
			if (u8t >= ret)
			{
				//I write spaces to blank older numbers
				u8t1 = ' ';
     71e:	60 e2       	ldi	r22, 0x20	; 32
     720:	01 c0       	rjmp	.+2      	; 0x724 <_Z13lcd_print_u16hj+0x1be>
		{
			//If: I'm outside the number (yes, that's the condition,right adjustment is messy)
			if ((u8t +ret) < User::String::Config::DIGIT16)
			{
				//I write spaces to blank older numbers
				u8t1 = ' ';
     722:	60 e2       	ldi	r22, 0x20	; 32
				//print number, I have to write digit in order with this adjust
				u8t1 = str[ u8t +ret -User::String::Config::DIGIT16 ];
			}
		}	//End If: right alignment
		//I want to call a single print, I have calculated the argument based on the settings of the print
		lcd_print_char( pos +u8t, u8t1 );
     724:	81 2f       	mov	r24, r17
     726:	8f 0d       	add	r24, r15
     728:	0e 94 66 02 	call	0x4cc	; 0x4cc <_Z14lcd_print_charhh>
	//***********************************************************************

	//convert the number
	ret = User::String::num_to_str( num, User::String::Config::DIGIT16, str );
	//For: every digit
	for (u8t = 0;u8t < User::String::Config::DIGIT16; u8t++)
     72c:	1f 5f       	subi	r17, 0xFF	; 255
     72e:	d7 cf       	rjmp	.-82     	; 0x6de <_Z13lcd_print_u16hj+0x178>
	//***********************************************************************
	//	RETURN
	//***********************************************************************

	return;
}   //End function: lcd_print_u16
     730:	60 96       	adiw	r28, 0x10	; 16
     732:	cd bf       	out	0x3d, r28	; 61
     734:	de bf       	out	0x3e, r29	; 62
     736:	df 91       	pop	r29
     738:	cf 91       	pop	r28
     73a:	1f 91       	pop	r17
     73c:	0f 91       	pop	r16
     73e:	ff 90       	pop	r15
     740:	08 95       	ret

00000742 <_Z10init_clockv>:
	//----------------------------------------------------------------
	//	BODY
	//----------------------------------------------------------------

	//Main clock switch
	INIT_CONFIG_PROTECTED( CLKCTRL.MCLKCTRLA, CLKCTRL_CLKSEL_gm, CLKCTRL_CLKSEL_gp, (CLKCTRL_CLKSEL_t)CLKCTRL_CLKSEL_OSC20M_gc);
     742:	88 ed       	ldi	r24, 0xD8	; 216
     744:	84 bf       	out	0x34, r24	; 52
     746:	e0 e6       	ldi	r30, 0x60	; 96
     748:	f0 e0       	ldi	r31, 0x00	; 0
     74a:	90 81       	ld	r25, Z
     74c:	9c 7f       	andi	r25, 0xFC	; 252
     74e:	90 83       	st	Z, r25
	//Configure CLK_OUT pin as disabled
	INIT_CONFIG_PROTECTED( CLKCTRL.MCLKCTRLA, CLKCTRL_CLKOUT_bm, CLKCTRL_CLKOUT_bp, 0);
     750:	84 bf       	out	0x34, r24	; 52
     752:	90 81       	ld	r25, Z
     754:	9f 77       	andi	r25, 0x7F	; 127
     756:	90 83       	st	Z, r25
	//Disable the main clock prescaler
	INIT_CONFIG_PROTECTED( CLKCTRL.MCLKCTRLB, CLKCTRL_PEN_bm, CLKCTRL_PEN_bm, 0);
     758:	84 bf       	out	0x34, r24	; 52
     75a:	91 81       	ldd	r25, Z+1	; 0x01
     75c:	9e 7f       	andi	r25, 0xFE	; 254
     75e:	91 83       	std	Z+1, r25	; 0x01
	//Set the main clock prescaler to 2
	INIT_CONFIG_PROTECTED( CLKCTRL.MCLKCTRLB, CLKCTRL_PDIV_gm, CLKCTRL_PDIV_gp, (CLKCTRL_PDIV_t)CLKCTRL_PDIV_2X_gc);
     760:	84 bf       	out	0x34, r24	; 52
     762:	91 81       	ldd	r25, Z+1	; 0x01
     764:	91 7e       	andi	r25, 0xE1	; 225
     766:	91 83       	std	Z+1, r25	; 0x01
	//Disable the clock multiplexer and prescaler protection
	INIT_CONFIG_PROTECTED( CLKCTRL.MCLKLOCK, CLKCTRL_LOCKEN_bm, CLKCTRL_LOCKEN_bp, 0);
     768:	84 bf       	out	0x34, r24	; 52
     76a:	92 81       	ldd	r25, Z+2	; 0x02
     76c:	9e 7f       	andi	r25, 0xFE	; 254
     76e:	92 83       	std	Z+2, r25	; 0x02

	CLKCTRL.OSC20MCTRLA |= CLKCTRL_RUNSTDBY_bm; //1<<1;
     770:	90 89       	ldd	r25, Z+16	; 0x10
     772:	92 60       	ori	r25, 0x02	; 2
     774:	90 8b       	std	Z+16, r25	; 0x10
	CCP = CCP_IOREG_gc;
     776:	84 bf       	out	0x34, r24	; 52
	CLKCTRL.OSC20MCALIBB |= CLKCTRL_LOCK_bm; //1<<7
     778:	82 89       	ldd	r24, Z+18	; 0x12
     77a:	80 68       	ori	r24, 0x80	; 128
     77c:	82 8b       	std	Z+18, r24	; 0x12
     77e:	08 95       	ret

00000780 <_Z8init_pinv>:
	//!	PA5				: 
	//!	PA6				: UC_BTN
	//!	PA7				: LCD PWR#
	//----------------------------------------------------------------
	//				0		1		2		3		4		5		6		7
	PORT_A_CONFIG(	PIN_H,	PIN_Z,	PIN_Z,	PIN_Z,	PIN_Z,	PIN_Z,	PIN_R,	PIN_H );
     780:	e0 e0       	ldi	r30, 0x00	; 0
     782:	f4 e0       	ldi	r31, 0x04	; 4
     784:	81 e8       	ldi	r24, 0x81	; 129
     786:	80 83       	st	Z, r24
     788:	84 83       	std	Z+4, r24	; 0x04
     78a:	12 86       	std	Z+10, r1	; 0x0a
     78c:	10 8a       	std	Z+16, r1	; 0x10
     78e:	11 8a       	std	Z+17, r1	; 0x11
     790:	12 8a       	std	Z+18, r1	; 0x12
     792:	13 8a       	std	Z+19, r1	; 0x13
     794:	14 8a       	std	Z+20, r1	; 0x14
     796:	15 8a       	std	Z+21, r1	; 0x15
     798:	88 e0       	ldi	r24, 0x08	; 8
     79a:	86 8b       	std	Z+22, r24	; 0x16
     79c:	17 8a       	std	Z+23, r1	; 0x17
	//!	PB5,			: LCD RS
	//!	PB6				:
	//!	PB7				:
	//----------------------------------------------------------------
	//				0		1		2		3		4		5		6		7
	PORT_B_CONFIG(	PIN_L,	PIN_L,	PIN_L,	PIN_L,	PIN_L,	PIN_L,	PIN_Z,	PIN_Z );
     79e:	e0 e2       	ldi	r30, 0x20	; 32
     7a0:	f4 e0       	ldi	r31, 0x04	; 4
     7a2:	8f e3       	ldi	r24, 0x3F	; 63
     7a4:	80 83       	st	Z, r24
     7a6:	14 82       	std	Z+4, r1	; 0x04
     7a8:	12 86       	std	Z+10, r1	; 0x0a
     7aa:	10 8a       	std	Z+16, r1	; 0x10
     7ac:	11 8a       	std	Z+17, r1	; 0x11
     7ae:	12 8a       	std	Z+18, r1	; 0x12
     7b0:	13 8a       	std	Z+19, r1	; 0x13
     7b2:	14 8a       	std	Z+20, r1	; 0x14
     7b4:	15 8a       	std	Z+21, r1	; 0x15
     7b6:	16 8a       	std	Z+22, r1	; 0x16
     7b8:	17 8a       	std	Z+23, r1	; 0x17
	//!	PC5				: UC_LED1 (BLUE)
	//!	PC6				:
	//!	PC7				:
	//----------------------------------------------------------------
	//				0		1		2		3		4		5		6		7
	PORT_C_CONFIG(	PIN_Z,	PIN_Z,	PIN_Z,	PIN_Z,	PIN_L,	PIN_L,	PIN_Z,	PIN_Z );
     7ba:	e0 e4       	ldi	r30, 0x40	; 64
     7bc:	f4 e0       	ldi	r31, 0x04	; 4
     7be:	80 e3       	ldi	r24, 0x30	; 48
     7c0:	80 83       	st	Z, r24
     7c2:	14 82       	std	Z+4, r1	; 0x04
     7c4:	12 86       	std	Z+10, r1	; 0x0a
     7c6:	10 8a       	std	Z+16, r1	; 0x10
     7c8:	11 8a       	std	Z+17, r1	; 0x11
     7ca:	12 8a       	std	Z+18, r1	; 0x12
     7cc:	13 8a       	std	Z+19, r1	; 0x13
     7ce:	14 8a       	std	Z+20, r1	; 0x14
     7d0:	15 8a       	std	Z+21, r1	; 0x15
     7d2:	16 8a       	std	Z+22, r1	; 0x16
     7d4:	17 8a       	std	Z+23, r1	; 0x17
	//!	PD5				:
	//!	PD6				: 
	//!	PD7				:	UC_SERVO_POWER#	| false = allow power to flow from the regulator channel 2 to the servo connectors
	//----------------------------------------------------------------
	//				0		1		2		3		4		5		6		7
	PORT_D_CONFIG(	PIN_Z,	PIN_Z,	PIN_Z,	PIN_Z,	PIN_Z,	PIN_Z,	PIN_Z,	PIN_H );
     7d6:	e0 e6       	ldi	r30, 0x60	; 96
     7d8:	f4 e0       	ldi	r31, 0x04	; 4
     7da:	80 e8       	ldi	r24, 0x80	; 128
     7dc:	80 83       	st	Z, r24
     7de:	84 83       	std	Z+4, r24	; 0x04
     7e0:	12 86       	std	Z+10, r1	; 0x0a
     7e2:	10 8a       	std	Z+16, r1	; 0x10
     7e4:	11 8a       	std	Z+17, r1	; 0x11
     7e6:	12 8a       	std	Z+18, r1	; 0x12
     7e8:	13 8a       	std	Z+19, r1	; 0x13
     7ea:	14 8a       	std	Z+20, r1	; 0x14
     7ec:	15 8a       	std	Z+21, r1	; 0x15
     7ee:	16 8a       	std	Z+22, r1	; 0x16
     7f0:	17 8a       	std	Z+23, r1	; 0x17
	//!	PE5				: 
	//!	PE6				: 
	//!	PE7				: 
	//----------------------------------------------------------------
	//				0		1		2		3		4		5		6		7
	PORT_E_CONFIG(	PIN_L,	PIN_Z,	PIN_Z,	PIN_Z,	PIN_Z,	PIN_Z,	PIN_Z,	PIN_Z );
     7f2:	e0 e8       	ldi	r30, 0x80	; 128
     7f4:	f4 e0       	ldi	r31, 0x04	; 4
     7f6:	81 e0       	ldi	r24, 0x01	; 1
     7f8:	80 83       	st	Z, r24
     7fa:	14 82       	std	Z+4, r1	; 0x04
     7fc:	12 86       	std	Z+10, r1	; 0x0a
     7fe:	10 8a       	std	Z+16, r1	; 0x10
     800:	11 8a       	std	Z+17, r1	; 0x11
     802:	12 8a       	std	Z+18, r1	; 0x12
     804:	13 8a       	std	Z+19, r1	; 0x13
     806:	14 8a       	std	Z+20, r1	; 0x14
     808:	15 8a       	std	Z+21, r1	; 0x15
     80a:	16 8a       	std	Z+22, r1	; 0x16
     80c:	17 8a       	std	Z+23, r1	; 0x17
	//!	PF5				: 
	//!	PF6				:
	//!	PF7				:
	//----------------------------------------------------------------
	//				0		1		2		3		4		5		6		7
	PORT_F_CONFIG(	PIN_L,	PIN_L,	PIN_L,	PIN_L,	PIN_Z,	PIN_Z,	PIN_Z,	PIN_Z );
     80e:	e0 ea       	ldi	r30, 0xA0	; 160
     810:	f4 e0       	ldi	r31, 0x04	; 4
     812:	8f e0       	ldi	r24, 0x0F	; 15
     814:	80 83       	st	Z, r24
     816:	14 82       	std	Z+4, r1	; 0x04
     818:	12 86       	std	Z+10, r1	; 0x0a
     81a:	10 8a       	std	Z+16, r1	; 0x10
     81c:	11 8a       	std	Z+17, r1	; 0x11
     81e:	12 8a       	std	Z+18, r1	; 0x12
     820:	13 8a       	std	Z+19, r1	; 0x13
     822:	14 8a       	std	Z+20, r1	; 0x14
     824:	15 8a       	std	Z+21, r1	; 0x15
     826:	16 8a       	std	Z+22, r1	; 0x16
     828:	17 8a       	std	Z+23, r1	; 0x17
     82a:	08 95       	ret

0000082c <_Z8init_rtcv>:
	//----------------------------------------------------------------
	//	VARS
	//----------------------------------------------------------------

	//! Fetch registers
	uint8_t ctrla_tmp		= RTC.CTRLA;
     82c:	e0 e4       	ldi	r30, 0x40	; 64
     82e:	f1 e0       	ldi	r31, 0x01	; 1
     830:	90 81       	ld	r25, Z
	uint8_t intctrl_tmp		= RTC.INTCTRL;
     832:	42 81       	ldd	r20, Z+2	; 0x02
	uint8_t dgbctrl_tmp		= RTC.DBGCTRL;
     834:	55 81       	ldd	r21, Z+5	; 0x05
	uint8_t clksel_tmp		= RTC.CLKSEL;
     836:	37 81       	ldd	r19, Z+7	; 0x07
	uint8_t pitctrla_tmp	= RTC.PITCTRLA;
     838:	80 89       	ldd	r24, Z+16	; 0x10
	uint8_t pitintctrl_tmp	= RTC.PITINTCTRL;
     83a:	22 89       	ldd	r18, Z+18	; 0x12
	//! RTC Clock Source
	//----------------------------------------------------------------
	//	Clock source for the RTC timer. Select only one

	//Internal 32KHz oscillator
	SET_MASKED_BIT( clksel_tmp, RTC_CLKSEL_gm, RTC_CLKSEL_INT32K_gc );
     83c:	3c 7f       	andi	r19, 0xFC	; 252
     83e:	97 78       	andi	r25, 0x87	; 135
	//----------------------------------------------------------------
	//! RTC Clock Prescaler
	//----------------------------------------------------------------
	//	Set prescaler. Only activate one

	SET_MASKED_BIT( ctrla_tmp, RTC_PRESCALER_gm, RTC_PRESCALER_DIV1_gc );
     840:	91 68       	ori	r25, 0x81	; 129
	//----------------------------------------------------------------
	//! RTC Periodic Interrupt period
	//----------------------------------------------------------------

	//! Enable Periodic Interrupt timer
	SET_BIT( pitctrla_tmp, RTC_PITEN_bp );
     842:	81 60       	ori	r24, 0x01	; 1
	//! Period for the periodic interrupt. Activate only one
	//SET_MASKED_BIT( pitctrla_tmp, RTC_PERIOD_gm, RTC_PERIOD_OFF_gc );
	//SET_MASKED_BIT( pitctrla_tmp, RTC_PERIOD_gm, RTC_PERIOD_CYC4_gc );
	//SET_MASKED_BIT( pitctrla_tmp, RTC_PERIOD_gm, RTC_PERIOD_CYC8_gc );
	//SET_MASKED_BIT( pitctrla_tmp, RTC_PERIOD_gm, RTC_PERIOD_CYC16_gc );
	SET_MASKED_BIT( pitctrla_tmp, RTC_PERIOD_gm, RTC_PERIOD_CYC32_gc );
     844:	87 78       	andi	r24, 0x87	; 135
     846:	80 62       	ori	r24, 0x20	; 32
	//! Enable overflow interrupt
	//SET_BIT( intctrl_tmp, RTC_OVF_bp );
	//! Enable Compare Match interrupt
	//SET_BIT( intctrl_tmp, RTC_CMP_bp );
	//! Enable Periodic Interrupt timer
	SET_BIT( pitintctrl_tmp, RTC_PI_bp );
     848:	21 60       	ori	r18, 0x01	; 1
	//----------------------------------------------------------------
	//	RETURN
	//----------------------------------------------------------------

	//Calibration PPM of the RTC counter. Meant to be done in software against more precise clock sources.
	RTC.CALIB = (uint8_t)0x00;
     84a:	16 82       	std	Z+6, r1	; 0x06

	//Wait for the ***
	//while (IS_BIT_ONE(RTC.STATUS, RTC_PERBUSY_bp));
	RTC.PER = (uint16_t)0;
     84c:	12 86       	std	Z+10, r1	; 0x0a
     84e:	13 86       	std	Z+11, r1	; 0x0b
	//Compare register for compare interrupt
	RTC.CMP = (uint16_t)0;
     850:	14 86       	std	Z+12, r1	; 0x0c
     852:	15 86       	std	Z+13, r1	; 0x0d

	//! Registers write back
	//Configuration registers
	RTC.DBGCTRL = dgbctrl_tmp;
     854:	55 83       	std	Z+5, r21	; 0x05
	RTC.CLKSEL = clksel_tmp;
     856:	37 83       	std	Z+7, r19	; 0x07
	RTC.PITCTRLA = pitctrla_tmp;
     858:	80 8b       	std	Z+16, r24	; 0x10
	//Write this register last as it activates the timer
	RTC.CTRLA = ctrla_tmp;
     85a:	90 83       	st	Z, r25
	//Activate interrupts
	RTC.INTCTRL = intctrl_tmp;
     85c:	42 83       	std	Z+2, r20	; 0x02
	RTC.PITINTCTRL = pitintctrl_tmp;
     85e:	22 8b       	std	Z+18, r18	; 0x12
     860:	08 95       	ret

00000862 <_Z4initv>:
	//----------------------------------------------------------------
	//	BODY
	//----------------------------------------------------------------

	//Initialize clock systems
	init_clock();
     862:	0e 94 a1 03 	call	0x742	; 0x742 <_Z10init_clockv>
	
	//initialize pin configuration
	init_pin();
     866:	0e 94 c0 03 	call	0x780	; 0x780 <_Z8init_pinv>
	
	//Initialize RTC timer as Periodic interrupt source: RTC_PIT_vect
	init_rtc();
     86a:	0e 94 16 04 	call	0x82c	; 0x82c <_Z8init_rtcv>
     86e:	08 95       	ret

00000870 <__vector_4>:
//! @details
//! \n Periodic interrupt generated by the RTC from it's independent clock source
/***************************************************************************/

ISR( RTC_PIT_vect )
{	
     870:	1f 92       	push	r1
     872:	0f 92       	push	r0
     874:	0f b6       	in	r0, 0x3f	; 63
     876:	0f 92       	push	r0
     878:	11 24       	eor	r1, r1
     87a:	2f 93       	push	r18
     87c:	8f 93       	push	r24
     87e:	9f 93       	push	r25
	//	VARS
	//----------------------------------------------------------------
	//Local prescaler
	
	//if: tick is not issued
	if (g_isr_flags.fast_tick == false)
     880:	80 91 de 28 	lds	r24, 0x28DE	; 0x8028de <g_isr_flags>
     884:	80 fd       	sbrc	r24, 0
     886:	06 c0       	rjmp	.+12     	; 0x894 <__vector_4+0x24>
	{
		//Issue a tick
		g_isr_flags.fast_tick = true;
     888:	80 91 de 28 	lds	r24, 0x28DE	; 0x8028de <g_isr_flags>
     88c:	81 60       	ori	r24, 0x01	; 1
     88e:	80 93 de 28 	sts	0x28DE, r24	; 0x8028de <g_isr_flags>
     892:	07 c0       	rjmp	.+14     	; 0x8a2 <__vector_4+0x32>
	//if: slow tick is already issued
	else
	{
		//ERR OVERRUN
		//The main application could not keep up with the previous slow tick. Raise the alarm
		ISSUE_ERROR(ge_error_code, Error_code::ERR_OVERRUN_FAST_TICK);
     894:	80 91 dd 28 	lds	r24, 0x28DD	; 0x8028dd <ge_error_code>
     898:	88 23       	and	r24, r24
     89a:	19 f0       	breq	.+6      	; 0x8a2 <__vector_4+0x32>
     89c:	81 e0       	ldi	r24, 0x01	; 1
     89e:	80 93 dd 28 	sts	0x28DD, r24	; 0x8028dd <ge_error_code>
	//	Slow tick meant to handle slow services like LEDs
	
	//Prescaler
	static uint16_t pre_slow = 0;	
	//If: Tick
	if (pre_slow == 0)
     8a2:	80 91 2d 28 	lds	r24, 0x282D	; 0x80282d <_ZZ10__vector_4E8pre_slow>
     8a6:	90 91 2e 28 	lds	r25, 0x282E	; 0x80282e <_ZZ10__vector_4E8pre_slow+0x1>
     8aa:	00 97       	sbiw	r24, 0x00	; 0
     8ac:	89 f4       	brne	.+34     	; 0x8d0 <__vector_4+0x60>
	{
		//if: tick is not issued
		if (g_isr_flags.slow_tick == false)
     8ae:	20 91 de 28 	lds	r18, 0x28DE	; 0x8028de <g_isr_flags>
     8b2:	21 fd       	sbrc	r18, 1
     8b4:	06 c0       	rjmp	.+12     	; 0x8c2 <__vector_4+0x52>
		{
			//Issue a tick
			g_isr_flags.slow_tick = true;	
     8b6:	20 91 de 28 	lds	r18, 0x28DE	; 0x8028de <g_isr_flags>
     8ba:	22 60       	ori	r18, 0x02	; 2
     8bc:	20 93 de 28 	sts	0x28DE, r18	; 0x8028de <g_isr_flags>
     8c0:	07 c0       	rjmp	.+14     	; 0x8d0 <__vector_4+0x60>
		//if: tick is already issued
		else
		{
			//ERR OVERRUN
			//The main application could not keep up with the previous slow tick. Raise the alarm
			ISSUE_ERROR(ge_error_code, Error_code::ERR_OVERRUN_SLOW_TICK);
     8c2:	20 91 dd 28 	lds	r18, 0x28DD	; 0x8028dd <ge_error_code>
     8c6:	22 23       	and	r18, r18
     8c8:	19 f0       	breq	.+6      	; 0x8d0 <__vector_4+0x60>
     8ca:	22 e0       	ldi	r18, 0x02	; 2
     8cc:	20 93 dd 28 	sts	0x28DD, r18	; 0x8028dd <ge_error_code>
		}
		
	}
	//Increment, reset if counter is top before increment
	pre_slow = AT_TOP_INC( pre_slow, Prescaler::TOP_SLOW_TICK-1 );
     8d0:	87 3e       	cpi	r24, 0xE7	; 231
     8d2:	23 e0       	ldi	r18, 0x03	; 3
     8d4:	92 07       	cpc	r25, r18
     8d6:	11 f0       	breq	.+4      	; 0x8dc <__vector_4+0x6c>
     8d8:	01 96       	adiw	r24, 0x01	; 1
     8da:	02 c0       	rjmp	.+4      	; 0x8e0 <__vector_4+0x70>
     8dc:	80 e0       	ldi	r24, 0x00	; 0
     8de:	90 e0       	ldi	r25, 0x00	; 0
     8e0:	80 93 2d 28 	sts	0x282D, r24	; 0x80282d <_ZZ10__vector_4E8pre_slow>
     8e4:	90 93 2e 28 	sts	0x282E, r25	; 0x80282e <_ZZ10__vector_4E8pre_slow+0x1>
	//----------------------------------------------------------------
	//	RETURN
	//----------------------------------------------------------------
	
	//Manually clear the interrupt flag
	RTC.PITINTFLAGS = RTC_PI_bm;
     8e8:	81 e0       	ldi	r24, 0x01	; 1
     8ea:	80 93 53 01 	sts	0x0153, r24	; 0x800153 <__TEXT_REGION_LENGTH__+0x7f4153>
}
     8ee:	9f 91       	pop	r25
     8f0:	8f 91       	pop	r24
     8f2:	2f 91       	pop	r18
     8f4:	0f 90       	pop	r0
     8f6:	0f be       	out	0x3f, r0	; 63
     8f8:	0f 90       	pop	r0
     8fa:	1f 90       	pop	r1
     8fc:	18 95       	reti

000008fe <__vector_17>:
//! @details
//! \n initialize clock systems
/***************************************************************************/

ISR( USART0_RXC_vect )
{
     8fe:	1f 92       	push	r1
     900:	0f 92       	push	r0
     902:	0f b6       	in	r0, 0x3f	; 63
     904:	0f 92       	push	r0
     906:	11 24       	eor	r1, r1
     908:	2f 93       	push	r18
     90a:	3f 93       	push	r19
     90c:	4f 93       	push	r20
     90e:	5f 93       	push	r21
     910:	6f 93       	push	r22
     912:	7f 93       	push	r23
     914:	8f 93       	push	r24
     916:	9f 93       	push	r25
     918:	af 93       	push	r26
     91a:	bf 93       	push	r27
     91c:	ef 93       	push	r30
     91e:	ff 93       	push	r31
	//----------------------------------------------------------------
	//	BODY
	//----------------------------------------------------------------
	
	//Execute the UART handler RX
	bool u1_fail = gcl_uart0.isr_rx_exe();
     920:	8d e9       	ldi	r24, 0x9D	; 157
     922:	98 e2       	ldi	r25, 0x28	; 40
     924:	0e 94 54 0b 	call	0x16a8	; 0x16a8 <_ZN4User4Uart10isr_rx_exeEv>
	
	//----------------------------------------------------------------
	//	RETURN
	//----------------------------------------------------------------
	
}	//End ISR: USART0_RXC_vect
     928:	ff 91       	pop	r31
     92a:	ef 91       	pop	r30
     92c:	bf 91       	pop	r27
     92e:	af 91       	pop	r26
     930:	9f 91       	pop	r25
     932:	8f 91       	pop	r24
     934:	7f 91       	pop	r23
     936:	6f 91       	pop	r22
     938:	5f 91       	pop	r21
     93a:	4f 91       	pop	r20
     93c:	3f 91       	pop	r19
     93e:	2f 91       	pop	r18
     940:	0f 90       	pop	r0
     942:	0f be       	out	0x3f, r0	; 63
     944:	0f 90       	pop	r0
     946:	1f 90       	pop	r1
     948:	18 95       	reti

0000094a <__vector_7>:
//! \n	>Last Servo Done: set PER to the time needed to do 20ms
//! \n	>Other Servo: Set OCR of said servo
/***************************************************************************/

ISR( TCA0_OVF_vect )
{
     94a:	1f 92       	push	r1
     94c:	0f 92       	push	r0
     94e:	0f b6       	in	r0, 0x3f	; 63
     950:	0f 92       	push	r0
     952:	11 24       	eor	r1, r1
     954:	2f 93       	push	r18
     956:	3f 93       	push	r19
     958:	4f 93       	push	r20
     95a:	5f 93       	push	r21
     95c:	6f 93       	push	r22
     95e:	7f 93       	push	r23
     960:	8f 93       	push	r24
     962:	9f 93       	push	r25
     964:	af 93       	push	r26
     966:	bf 93       	push	r27
     968:	ef 93       	push	r30
     96a:	ff 93       	push	r31
	//----------------------------------------------------------------
	//	VARS
	//----------------------------------------------------------------
	
	//Execute the servo driver ISR
	gc_servo.hal_timer_isr();
     96c:	8f e2       	ldi	r24, 0x2F	; 47
     96e:	98 e2       	ldi	r25, 0x28	; 40
     970:	0e 94 a8 0a 	call	0x1550	; 0x1550 <_ZN9OrangeBot5Servo13hal_timer_isrEv>
	//----------------------------------------------------------------
	//	RETURN
	//----------------------------------------------------------------
	
	//Manually clear the interrupt flag
	TCA0.SINGLE.INTFLAGS = TCA_SINGLE_OVF_bm;
     974:	81 e0       	ldi	r24, 0x01	; 1
     976:	80 93 0b 0a 	sts	0x0A0B, r24	; 0x800a0b <__TEXT_REGION_LENGTH__+0x7f4a0b>
}
     97a:	ff 91       	pop	r31
     97c:	ef 91       	pop	r30
     97e:	bf 91       	pop	r27
     980:	af 91       	pop	r26
     982:	9f 91       	pop	r25
     984:	8f 91       	pop	r24
     986:	7f 91       	pop	r23
     988:	6f 91       	pop	r22
     98a:	5f 91       	pop	r21
     98c:	4f 91       	pop	r20
     98e:	3f 91       	pop	r19
     990:	2f 91       	pop	r18
     992:	0f 90       	pop	r0
     994:	0f be       	out	0x3f, r0	; 63
     996:	0f 90       	pop	r0
     998:	1f 90       	pop	r1
     99a:	18 95       	reti

0000099c <_Z41__static_initialization_and_destruction_0ii>:
//! @return void |
//! @details
/***************************************************************************/

void function_template( void )
{
     99c:	0f 93       	push	r16
     99e:	1f 93       	push	r17
     9a0:	cf 93       	push	r28
     9a2:	df 93       	push	r29
     9a4:	ec 01       	movw	r28, r24
     9a6:	8b 01       	movw	r16, r22
     9a8:	01 97       	sbiw	r24, 0x01	; 1
     9aa:	59 f4       	brne	.+22     	; 0x9c2 <_Z41__static_initialization_and_destruction_0ii+0x26>
     9ac:	6f 3f       	cpi	r22, 0xFF	; 255
     9ae:	7f 4f       	sbci	r23, 0xFF	; 255
     9b0:	41 f4       	brne	.+16     	; 0x9c2 <_Z41__static_initialization_and_destruction_0ii+0x26>
     9b2:	8d e9       	ldi	r24, 0x9D	; 157
     9b4:	98 e2       	ldi	r25, 0x28	; 40
     9b6:	0e 94 1c 0c 	call	0x1838	; 0x1838 <_ZN4User4UartC1Ev>
     9ba:	8f e2       	ldi	r24, 0x2F	; 47
     9bc:	98 e2       	ldi	r25, 0x28	; 40
     9be:	0e 94 83 07 	call	0xf06	; 0xf06 <_ZN9OrangeBot5ServoC1Ev>
     9c2:	cd 2b       	or	r28, r29
     9c4:	59 f4       	brne	.+22     	; 0x9dc <_Z41__static_initialization_and_destruction_0ii+0x40>
     9c6:	0f 3f       	cpi	r16, 0xFF	; 255
     9c8:	1f 4f       	sbci	r17, 0xFF	; 255
     9ca:	41 f4       	brne	.+16     	; 0x9dc <_Z41__static_initialization_and_destruction_0ii+0x40>
     9cc:	8f e2       	ldi	r24, 0x2F	; 47
     9ce:	98 e2       	ldi	r25, 0x28	; 40
     9d0:	0e 94 fb 05 	call	0xbf6	; 0xbf6 <_ZN9OrangeBot5ServoD1Ev>
     9d4:	8d e9       	ldi	r24, 0x9D	; 157
     9d6:	98 e2       	ldi	r25, 0x28	; 40
     9d8:	0e 94 3c 0b 	call	0x1678	; 0x1678 <_ZN4User4UartD1Ev>
     9dc:	df 91       	pop	r29
     9de:	cf 91       	pop	r28
     9e0:	1f 91       	pop	r17
     9e2:	0f 91       	pop	r16
     9e4:	08 95       	ret

000009e6 <main>:
     9e6:	cf 93       	push	r28
     9e8:	df 93       	push	r29
     9ea:	cd b7       	in	r28, 0x3d	; 61
     9ec:	de b7       	in	r29, 0x3e	; 62
     9ee:	ce 56       	subi	r28, 0x6E	; 110
     9f0:	d1 09       	sbc	r29, r1
     9f2:	cd bf       	out	0x3d, r28	; 61
     9f4:	de bf       	out	0x3e, r29	; 62
     9f6:	0e 94 31 04 	call	0x862	; 0x862 <_Z4initv>
     9fa:	e0 e0       	ldi	r30, 0x00	; 0
     9fc:	f4 e0       	ldi	r31, 0x04	; 4
     9fe:	84 81       	ldd	r24, Z+4	; 0x04
     a00:	80 68       	ori	r24, 0x80	; 128
     a02:	84 83       	std	Z+4, r24	; 0x04
     a04:	2f e7       	ldi	r18, 0x7F	; 127
     a06:	64 e8       	ldi	r22, 0x84	; 132
     a08:	7e e1       	ldi	r23, 0x1E	; 30
     a0a:	21 50       	subi	r18, 0x01	; 1
     a0c:	60 40       	sbci	r22, 0x00	; 0
     a0e:	70 40       	sbci	r23, 0x00	; 0
     a10:	e1 f7       	brne	.-8      	; 0xa0a <main+0x24>
     a12:	00 c0       	rjmp	.+0      	; 0xa14 <main+0x2e>
     a14:	00 00       	nop
     a16:	84 81       	ldd	r24, Z+4	; 0x04
     a18:	8f 77       	andi	r24, 0x7F	; 127
     a1a:	84 83       	std	Z+4, r24	; 0x04
     a1c:	8f e7       	ldi	r24, 0x7F	; 127
     a1e:	94 e8       	ldi	r25, 0x84	; 132
     a20:	2e e1       	ldi	r18, 0x1E	; 30
     a22:	81 50       	subi	r24, 0x01	; 1
     a24:	90 40       	sbci	r25, 0x00	; 0
     a26:	20 40       	sbci	r18, 0x00	; 0
     a28:	e1 f7       	brne	.-8      	; 0xa22 <main+0x3c>
     a2a:	00 c0       	rjmp	.+0      	; 0xa2c <main+0x46>
     a2c:	00 00       	nop
     a2e:	0e 94 c0 00 	call	0x180	; 0x180 <_Z8lcd_initv>
     a32:	6c e5       	ldi	r22, 0x5C	; 92
     a34:	7a e5       	ldi	r23, 0x5A	; 90
     a36:	80 e0       	ldi	r24, 0x00	; 0
     a38:	0e 94 91 02 	call	0x522	; 0x522 <_Z13lcd_print_strhPKc>
     a3c:	ce 01       	movw	r24, r28
     a3e:	01 96       	adiw	r24, 0x01	; 1
     a40:	0e 94 1c 0c 	call	0x1838	; 0x1838 <_ZN4User4UartC1Ev>
     a44:	80 e4       	ldi	r24, 0x40	; 64
     a46:	fe 01       	movw	r30, r28
     a48:	31 96       	adiw	r30, 0x01	; 1
     a4a:	ad e9       	ldi	r26, 0x9D	; 157
     a4c:	b8 e2       	ldi	r27, 0x28	; 40
     a4e:	01 90       	ld	r0, Z+
     a50:	0d 92       	st	X+, r0
     a52:	8a 95       	dec	r24
     a54:	e1 f7       	brne	.-8      	; 0xa4e <main+0x68>
     a56:	ce 01       	movw	r24, r28
     a58:	01 96       	adiw	r24, 0x01	; 1
     a5a:	0e 94 3c 0b 	call	0x1678	; 0x1678 <_ZN4User4UartD1Ev>
     a5e:	ce 01       	movw	r24, r28
     a60:	01 96       	adiw	r24, 0x01	; 1
     a62:	0e 94 83 07 	call	0xf06	; 0xf06 <_ZN9OrangeBot5ServoC1Ev>
     a66:	8e e6       	ldi	r24, 0x6E	; 110
     a68:	fe 01       	movw	r30, r28
     a6a:	31 96       	adiw	r30, 0x01	; 1
     a6c:	af e2       	ldi	r26, 0x2F	; 47
     a6e:	b8 e2       	ldi	r27, 0x28	; 40
     a70:	01 90       	ld	r0, Z+
     a72:	0d 92       	st	X+, r0
     a74:	8a 95       	dec	r24
     a76:	e1 f7       	brne	.-8      	; 0xa70 <main+0x8a>
     a78:	ce 01       	movw	r24, r28
     a7a:	01 96       	adiw	r24, 0x01	; 1
     a7c:	0e 94 fb 05 	call	0xbf6	; 0xbf6 <_ZN9OrangeBot5ServoD1Ev>
     a80:	61 e0       	ldi	r22, 0x01	; 1
     a82:	8f e2       	ldi	r24, 0x2F	; 47
     a84:	98 e2       	ldi	r25, 0x28	; 40
     a86:	0e 94 a4 08 	call	0x1148	; 0x1148 <_ZN9OrangeBot5Servo5powerEb>
     a8a:	78 94       	sei
     a8c:	80 e0       	ldi	r24, 0x00	; 0
     a8e:	90 e0       	ldi	r25, 0x00	; 0
     a90:	0e 94 d2 0c 	call	0x19a4	; 0x19a4 <srand>
     a94:	e1 2c       	mov	r14, r1
     a96:	f1 2c       	mov	r15, r1
     a98:	80 91 de 28 	lds	r24, 0x28DE	; 0x8028de <g_isr_flags>
     a9c:	80 ff       	sbrs	r24, 0
     a9e:	24 c0       	rjmp	.+72     	; 0xae8 <main+0x102>
     aa0:	80 91 de 28 	lds	r24, 0x28DE	; 0x8028de <g_isr_flags>
     aa4:	8e 7f       	andi	r24, 0xFE	; 254
     aa6:	80 93 de 28 	sts	0x28DE, r24	; 0x8028de <g_isr_flags>
     aaa:	e0 e4       	ldi	r30, 0x40	; 64
     aac:	f4 e0       	ldi	r31, 0x04	; 4
     aae:	24 81       	ldd	r18, Z+4	; 0x04
     ab0:	80 91 08 04 	lds	r24, 0x0408	; 0x800408 <__TEXT_REGION_LENGTH__+0x7f4408>
     ab4:	98 2f       	mov	r25, r24
     ab6:	90 74       	andi	r25, 0x40	; 64
     ab8:	89 2f       	mov	r24, r25
     aba:	90 e0       	ldi	r25, 0x00	; 0
     abc:	08 2e       	mov	r0, r24
     abe:	89 2f       	mov	r24, r25
     ac0:	00 0c       	add	r0, r0
     ac2:	88 1f       	adc	r24, r24
     ac4:	99 0b       	sbc	r25, r25
     ac6:	00 0c       	add	r0, r0
     ac8:	88 1f       	adc	r24, r24
     aca:	99 1f       	adc	r25, r25
     acc:	88 0f       	add	r24, r24
     ace:	99 1f       	adc	r25, r25
     ad0:	82 95       	swap	r24
     ad2:	92 95       	swap	r25
     ad4:	90 7f       	andi	r25, 0xF0	; 240
     ad6:	98 27       	eor	r25, r24
     ad8:	80 7f       	andi	r24, 0xF0	; 240
     ada:	98 27       	eor	r25, r24
     adc:	92 2f       	mov	r25, r18
     ade:	9f 7d       	andi	r25, 0xDF	; 223
     ae0:	89 2b       	or	r24, r25
     ae2:	84 83       	std	Z+4, r24	; 0x04
     ae4:	0e 94 e6 00 	call	0x1cc	; 0x1cc <_Z10lcd_updatev>
     ae8:	80 91 de 28 	lds	r24, 0x28DE	; 0x8028de <g_isr_flags>
     aec:	81 ff       	sbrs	r24, 1
     aee:	70 c0       	rjmp	.+224    	; 0xbd0 <main+0x1ea>
     af0:	80 91 de 28 	lds	r24, 0x28DE	; 0x8028de <g_isr_flags>
     af4:	8d 7f       	andi	r24, 0xFD	; 253
     af6:	80 93 de 28 	sts	0x28DE, r24	; 0x8028de <g_isr_flags>
     afa:	80 e1       	ldi	r24, 0x10	; 16
     afc:	80 93 47 04 	sts	0x0447, r24	; 0x800447 <__TEXT_REGION_LENGTH__+0x7f4447>
     b00:	b7 01       	movw	r22, r14
     b02:	0e 94 b3 02 	call	0x566	; 0x566 <_Z13lcd_print_u16hj>
     b06:	6f ef       	ldi	r22, 0xFF	; 255
     b08:	e6 1a       	sub	r14, r22
     b0a:	f6 0a       	sbc	r15, r22
     b0c:	c7 01       	movw	r24, r14
     b0e:	83 70       	andi	r24, 0x03	; 3
     b10:	99 27       	eor	r25, r25
     b12:	00 97       	sbiw	r24, 0x00	; 0
     b14:	51 f4       	brne	.+20     	; 0xb2a <main+0x144>
     b16:	28 ee       	ldi	r18, 0xE8	; 232
     b18:	33 e0       	ldi	r19, 0x03	; 3
     b1a:	48 e3       	ldi	r20, 0x38	; 56
     b1c:	5f ef       	ldi	r21, 0xFF	; 255
     b1e:	60 e0       	ldi	r22, 0x00	; 0
     b20:	8f e2       	ldi	r24, 0x2F	; 47
     b22:	98 e2       	ldi	r25, 0x28	; 40
     b24:	0e 94 05 07 	call	0xe0a	; 0xe0a <_ZN9OrangeBot5Servo9set_servoEhij>
     b28:	11 c0       	rjmp	.+34     	; 0xb4c <main+0x166>
     b2a:	02 97       	sbiw	r24, 0x02	; 2
     b2c:	41 f4       	brne	.+16     	; 0xb3e <main+0x158>
     b2e:	48 ec       	ldi	r20, 0xC8	; 200
     b30:	50 e0       	ldi	r21, 0x00	; 0
     b32:	60 e0       	ldi	r22, 0x00	; 0
     b34:	8f e2       	ldi	r24, 0x2F	; 47
     b36:	98 e2       	ldi	r25, 0x28	; 40
     b38:	0e 94 d5 06 	call	0xdaa	; 0xdaa <_ZN9OrangeBot5Servo9set_servoEhi>
     b3c:	07 c0       	rjmp	.+14     	; 0xb4c <main+0x166>
     b3e:	40 e0       	ldi	r20, 0x00	; 0
     b40:	50 e0       	ldi	r21, 0x00	; 0
     b42:	60 e0       	ldi	r22, 0x00	; 0
     b44:	8f e2       	ldi	r24, 0x2F	; 47
     b46:	98 e2       	ldi	r25, 0x28	; 40
     b48:	0e 94 d5 06 	call	0xdaa	; 0xdaa <_ZN9OrangeBot5Servo9set_servoEhi>
     b4c:	6a e5       	ldi	r22, 0x5A	; 90
     b4e:	8d e9       	ldi	r24, 0x9D	; 157
     b50:	98 e2       	ldi	r25, 0x28	; 40
     b52:	0e 94 3d 0b 	call	0x167a	; 0x167a <_ZN4User4Uart4sendEh>
     b56:	dd 24       	eor	r13, r13
     b58:	d3 94       	inc	r13
     b5a:	77 e0       	ldi	r23, 0x07	; 7
     b5c:	7d 15       	cp	r23, r13
     b5e:	c0 f1       	brcs	.+112    	; 0xbd0 <main+0x1ea>
     b60:	0e 94 cd 0c 	call	0x199a	; 0x199a <rand>
     b64:	ac 01       	movw	r20, r24
     b66:	9c 01       	movw	r18, r24
     b68:	36 95       	lsr	r19
     b6a:	27 95       	ror	r18
     b6c:	32 95       	swap	r19
     b6e:	22 95       	swap	r18
     b70:	2f 70       	andi	r18, 0x0F	; 15
     b72:	23 27       	eor	r18, r19
     b74:	3f 70       	andi	r19, 0x0F	; 15
     b76:	23 27       	eor	r18, r19
     b78:	ae e3       	ldi	r26, 0x3E	; 62
     b7a:	ba e0       	ldi	r27, 0x0A	; 10
     b7c:	0e 94 67 0c 	call	0x18ce	; 0x18ce <__umulhisi3>
     b80:	20 e2       	ldi	r18, 0x20	; 32
     b82:	33 e0       	ldi	r19, 0x03	; 3
     b84:	bc 01       	movw	r22, r24
     b86:	62 9f       	mul	r22, r18
     b88:	c0 01       	movw	r24, r0
     b8a:	63 9f       	mul	r22, r19
     b8c:	90 0d       	add	r25, r0
     b8e:	72 9f       	mul	r23, r18
     b90:	90 0d       	add	r25, r0
     b92:	11 24       	eor	r1, r1
     b94:	48 1b       	sub	r20, r24
     b96:	59 0b       	sbc	r21, r25
     b98:	8a 01       	movw	r16, r20
     b9a:	00 59       	subi	r16, 0x90	; 144
     b9c:	11 40       	sbci	r17, 0x01	; 1
     b9e:	0e 94 cd 0c 	call	0x199a	; 0x199a <rand>
     ba2:	87 70       	andi	r24, 0x07	; 7
     ba4:	90 78       	andi	r25, 0x80	; 128
     ba6:	99 23       	and	r25, r25
     ba8:	24 f4       	brge	.+8      	; 0xbb2 <main+0x1cc>
     baa:	01 97       	sbiw	r24, 0x01	; 1
     bac:	88 6f       	ori	r24, 0xF8	; 248
     bae:	9f 6f       	ori	r25, 0xFF	; 255
     bb0:	01 96       	adiw	r24, 0x01	; 1
     bb2:	01 96       	adiw	r24, 0x01	; 1
     bb4:	42 e3       	ldi	r20, 0x32	; 50
     bb6:	48 9f       	mul	r20, r24
     bb8:	90 01       	movw	r18, r0
     bba:	49 9f       	mul	r20, r25
     bbc:	30 0d       	add	r19, r0
     bbe:	11 24       	eor	r1, r1
     bc0:	a8 01       	movw	r20, r16
     bc2:	6d 2d       	mov	r22, r13
     bc4:	8f e2       	ldi	r24, 0x2F	; 47
     bc6:	98 e2       	ldi	r25, 0x28	; 40
     bc8:	0e 94 05 07 	call	0xe0a	; 0xe0a <_ZN9OrangeBot5Servo9set_servoEhij>
     bcc:	d3 94       	inc	r13
     bce:	c5 cf       	rjmp	.-118    	; 0xb5a <main+0x174>
     bd0:	8d e9       	ldi	r24, 0x9D	; 157
     bd2:	98 e2       	ldi	r25, 0x28	; 40
     bd4:	0e 94 ad 0b 	call	0x175a	; 0x175a <_ZN4User4Uart6updateEv>
     bd8:	5f cf       	rjmp	.-322    	; 0xa98 <main+0xb2>

00000bda <_GLOBAL__sub_I_g_isr_flags>:
	//----------------------------------------------------------------
	//	RETURN
	//----------------------------------------------------------------
	
	return;
}	//End function:
     bda:	6f ef       	ldi	r22, 0xFF	; 255
     bdc:	7f ef       	ldi	r23, 0xFF	; 255
     bde:	81 e0       	ldi	r24, 0x01	; 1
     be0:	90 e0       	ldi	r25, 0x00	; 0
     be2:	0e 94 ce 04 	call	0x99c	; 0x99c <_Z41__static_initialization_and_destruction_0ii>
     be6:	08 95       	ret

00000be8 <_GLOBAL__sub_D_g_isr_flags>:
     be8:	6f ef       	ldi	r22, 0xFF	; 255
     bea:	7f ef       	ldi	r23, 0xFF	; 255
     bec:	80 e0       	ldi	r24, 0x00	; 0
     bee:	90 e0       	ldi	r25, 0x00	; 0
     bf0:	0e 94 ce 04 	call	0x99c	; 0x99c <_Z41__static_initialization_and_destruction_0ii>
     bf4:	08 95       	ret

00000bf6 <_ZN9OrangeBot5ServoD1Ev>:
    ///--------------------------------------------------------------------------
    ///	RETURN
    ///--------------------------------------------------------------------------
    DRETURN();      //Trace Return
    return true;    //FAIL
}   //end private method: error_recovery | void |
     bf6:	08 95       	ret

00000bf8 <_ZN9OrangeBot5Servo11hal_init_ioEv>:
     bf8:	e0 e6       	ldi	r30, 0x60	; 96
     bfa:	f4 e0       	ldi	r31, 0x04	; 4
     bfc:	80 81       	ld	r24, Z
     bfe:	80 68       	ori	r24, 0x80	; 128
     c00:	80 83       	st	Z, r24
     c02:	e0 e8       	ldi	r30, 0x80	; 128
     c04:	f4 e0       	ldi	r31, 0x04	; 4
     c06:	80 81       	ld	r24, Z
     c08:	81 60       	ori	r24, 0x01	; 1
     c0a:	80 83       	st	Z, r24
     c0c:	80 81       	ld	r24, Z
     c0e:	82 60       	ori	r24, 0x02	; 2
     c10:	80 83       	st	Z, r24
     c12:	80 81       	ld	r24, Z
     c14:	84 60       	ori	r24, 0x04	; 4
     c16:	80 83       	st	Z, r24
     c18:	80 81       	ld	r24, Z
     c1a:	88 60       	ori	r24, 0x08	; 8
     c1c:	80 83       	st	Z, r24
     c1e:	e0 ea       	ldi	r30, 0xA0	; 160
     c20:	f4 e0       	ldi	r31, 0x04	; 4
     c22:	80 81       	ld	r24, Z
     c24:	81 60       	ori	r24, 0x01	; 1
     c26:	80 83       	st	Z, r24
     c28:	80 81       	ld	r24, Z
     c2a:	82 60       	ori	r24, 0x02	; 2
     c2c:	80 83       	st	Z, r24
     c2e:	80 81       	ld	r24, Z
     c30:	84 60       	ori	r24, 0x04	; 4
     c32:	80 83       	st	Z, r24
     c34:	80 81       	ld	r24, Z
     c36:	88 60       	ori	r24, 0x08	; 8
     c38:	80 83       	st	Z, r24
     c3a:	80 e0       	ldi	r24, 0x00	; 0
     c3c:	08 95       	ret

00000c3e <_ZN9OrangeBot5Servo25hal_init_ta0_timeout_modeEj>:
     c3e:	1f 93       	push	r17
     c40:	cf 93       	push	r28
     c42:	df 93       	push	r29
     c44:	e0 e0       	ldi	r30, 0x00	; 0
     c46:	fa e0       	ldi	r31, 0x0A	; 10
     c48:	80 81       	ld	r24, Z
     c4a:	31 81       	ldd	r19, Z+1	; 0x01
     c4c:	12 81       	ldd	r17, Z+2	; 0x02
     c4e:	d3 81       	ldd	r29, Z+3	; 0x03
     c50:	c5 81       	ldd	r28, Z+5	; 0x05
     c52:	26 85       	ldd	r18, Z+14	; 0x0e
     c54:	a0 ee       	ldi	r26, 0xE0	; 224
     c56:	b5 e0       	ldi	r27, 0x05	; 5
     c58:	14 96       	adiw	r26, 0x04	; 4
     c5a:	5c 91       	ld	r21, X
     c5c:	14 97       	sbiw	r26, 0x04	; 4
     c5e:	41 85       	ldd	r20, Z+9	; 0x09
     c60:	92 85       	ldd	r25, Z+10	; 0x0a
     c62:	81 7f       	andi	r24, 0xF1	; 241
     c64:	88 60       	ori	r24, 0x08	; 8
     c66:	38 7f       	andi	r19, 0xF8	; 248
     c68:	91 60       	ori	r25, 0x01	; 1
     c6a:	21 60       	ori	r18, 0x01	; 1
     c6c:	31 83       	std	Z+1, r19	; 0x01
     c6e:	12 83       	std	Z+2, r17	; 0x02
     c70:	d3 83       	std	Z+3, r29	; 0x03
     c72:	c5 83       	std	Z+5, r28	; 0x05
     c74:	26 87       	std	Z+14, r18	; 0x0e
     c76:	14 96       	adiw	r26, 0x04	; 4
     c78:	5c 93       	st	X, r21
     c7a:	66 a3       	std	Z+38, r22	; 0x26
     c7c:	77 a3       	std	Z+39, r23	; 0x27
     c7e:	10 a6       	std	Z+40, r1	; 0x28
     c80:	11 a6       	std	Z+41, r1	; 0x29
     c82:	12 a6       	std	Z+42, r1	; 0x2a
     c84:	13 a6       	std	Z+43, r1	; 0x2b
     c86:	14 a6       	std	Z+44, r1	; 0x2c
     c88:	15 a6       	std	Z+45, r1	; 0x2d
     c8a:	80 83       	st	Z, r24
     c8c:	41 87       	std	Z+9, r20	; 0x09
     c8e:	92 87       	std	Z+10, r25	; 0x0a
     c90:	80 e0       	ldi	r24, 0x00	; 0
     c92:	df 91       	pop	r29
     c94:	cf 91       	pop	r28
     c96:	1f 91       	pop	r17
     c98:	08 95       	ret

00000c9a <_ZN9OrangeBot5Servo12hal_delay_usEv>:
     c9a:	86 e0       	ldi	r24, 0x06	; 6
     c9c:	8a 95       	dec	r24
     c9e:	f1 f7       	brne	.-4      	; 0xc9c <_ZN9OrangeBot5Servo12hal_delay_usEv+0x2>
     ca0:	00 c0       	rjmp	.+0      	; 0xca2 <_ZN9OrangeBot5Servo12hal_delay_usEv+0x8>
     ca2:	80 e0       	ldi	r24, 0x00	; 0
     ca4:	08 95       	ret

00000ca6 <_ZN9OrangeBot5Servo9hal_powerEb>:
     ca6:	61 11       	cpse	r22, r1
     ca8:	06 c0       	rjmp	.+12     	; 0xcb6 <_ZN9OrangeBot5Servo9hal_powerEb+0x10>
     caa:	e0 e6       	ldi	r30, 0x60	; 96
     cac:	f4 e0       	ldi	r31, 0x04	; 4
     cae:	84 81       	ldd	r24, Z+4	; 0x04
     cb0:	80 68       	ori	r24, 0x80	; 128
     cb2:	84 83       	std	Z+4, r24	; 0x04
     cb4:	05 c0       	rjmp	.+10     	; 0xcc0 <_ZN9OrangeBot5Servo9hal_powerEb+0x1a>
     cb6:	e0 e6       	ldi	r30, 0x60	; 96
     cb8:	f4 e0       	ldi	r31, 0x04	; 4
     cba:	84 81       	ldd	r24, Z+4	; 0x04
     cbc:	8f 77       	andi	r24, 0x7F	; 127
     cbe:	84 83       	std	Z+4, r24	; 0x04
     cc0:	80 e0       	ldi	r24, 0x00	; 0
     cc2:	08 95       	ret

00000cc4 <_ZN9OrangeBot5Servo11hal_run_isrEb>:
     cc4:	61 11       	cpse	r22, r1
     cc6:	06 c0       	rjmp	.+12     	; 0xcd4 <_ZN9OrangeBot5Servo11hal_run_isrEb+0x10>
     cc8:	e0 e0       	ldi	r30, 0x00	; 0
     cca:	fa e0       	ldi	r31, 0x0A	; 10
     ccc:	80 81       	ld	r24, Z
     cce:	8e 7f       	andi	r24, 0xFE	; 254
     cd0:	80 83       	st	Z, r24
     cd2:	09 c0       	rjmp	.+18     	; 0xce6 <_ZN9OrangeBot5Servo11hal_run_isrEb+0x22>
     cd4:	e0 e0       	ldi	r30, 0x00	; 0
     cd6:	fa e0       	ldi	r31, 0x0A	; 10
     cd8:	87 ea       	ldi	r24, 0xA7	; 167
     cda:	91 e6       	ldi	r25, 0x61	; 97
     cdc:	86 a3       	std	Z+38, r24	; 0x26
     cde:	97 a3       	std	Z+39, r25	; 0x27
     ce0:	80 81       	ld	r24, Z
     ce2:	81 60       	ori	r24, 0x01	; 1
     ce4:	80 83       	st	Z, r24
     ce6:	80 e0       	ldi	r24, 0x00	; 0
     ce8:	08 95       	ret

00000cea <_ZN9OrangeBot5Servo15init_class_varsEv>:
     cea:	cf 93       	push	r28
     cec:	df 93       	push	r29
     cee:	cd b7       	in	r28, 0x3d	; 61
     cf0:	de b7       	in	r29, 0x3e	; 62
     cf2:	2d 97       	sbiw	r28, 0x0d	; 13
     cf4:	cd bf       	out	0x3d, r28	; 61
     cf6:	de bf       	out	0x3e, r29	; 62
     cf8:	fc 01       	movw	r30, r24
     cfa:	10 82       	st	Z, r1
     cfc:	e7 59       	subi	r30, 0x97	; 151
     cfe:	ff 4f       	sbci	r31, 0xFF	; 255
     d00:	10 82       	st	Z, r1
     d02:	11 82       	std	Z+1, r1	; 0x01
     d04:	19 82       	std	Y+1, r1	; 0x01
     d06:	1a 82       	std	Y+2, r1	; 0x02
     d08:	1b 82       	std	Y+3, r1	; 0x03
     d0a:	1c 82       	std	Y+4, r1	; 0x04
     d0c:	21 e0       	ldi	r18, 0x01	; 1
     d0e:	2d 83       	std	Y+5, r18	; 0x05
     d10:	2e 83       	std	Y+6, r18	; 0x06
     d12:	18 86       	std	Y+8, r1	; 0x08
     d14:	1f 82       	std	Y+7, r1	; 0x07
     d16:	20 e0       	ldi	r18, 0x00	; 0
     d18:	28 30       	cpi	r18, 0x08	; 8
     d1a:	a0 f4       	brcc	.+40     	; 0xd44 <_ZN9OrangeBot5Servo15init_class_varsEv+0x5a>
     d1c:	a2 2f       	mov	r26, r18
     d1e:	b0 e0       	ldi	r27, 0x00	; 0
     d20:	aa 0f       	add	r26, r26
     d22:	bb 1f       	adc	r27, r27
     d24:	aa 0f       	add	r26, r26
     d26:	bb 1f       	adc	r27, r27
     d28:	aa 0f       	add	r26, r26
     d2a:	bb 1f       	adc	r27, r27
     d2c:	a8 0f       	add	r26, r24
     d2e:	b9 1f       	adc	r27, r25
     d30:	11 96       	adiw	r26, 0x01	; 1
     d32:	38 e0       	ldi	r19, 0x08	; 8
     d34:	fe 01       	movw	r30, r28
     d36:	31 96       	adiw	r30, 0x01	; 1
     d38:	01 90       	ld	r0, Z+
     d3a:	0d 92       	st	X+, r0
     d3c:	3a 95       	dec	r19
     d3e:	e1 f7       	brne	.-8      	; 0xd38 <_ZN9OrangeBot5Servo15init_class_varsEv+0x4e>
     d40:	2f 5f       	subi	r18, 0xFF	; 255
     d42:	ea cf       	rjmp	.-44     	; 0xd18 <_ZN9OrangeBot5Servo15init_class_varsEv+0x2e>
     d44:	19 86       	std	Y+9, r1	; 0x09
     d46:	1a 86       	std	Y+10, r1	; 0x0a
     d48:	1b 86       	std	Y+11, r1	; 0x0b
     d4a:	2c ed       	ldi	r18, 0xDC	; 220
     d4c:	35 e0       	ldi	r19, 0x05	; 5
     d4e:	2c 87       	std	Y+12, r18	; 0x0c
     d50:	3d 87       	std	Y+13, r19	; 0x0d
     d52:	40 e0       	ldi	r20, 0x00	; 0
     d54:	48 30       	cpi	r20, 0x08	; 8
     d56:	b0 f4       	brcc	.+44     	; 0xd84 <_ZN9OrangeBot5Servo15init_class_varsEv+0x9a>
     d58:	24 2f       	mov	r18, r20
     d5a:	30 e0       	ldi	r19, 0x00	; 0
     d5c:	d9 01       	movw	r26, r18
     d5e:	aa 0f       	add	r26, r26
     d60:	bb 1f       	adc	r27, r27
     d62:	aa 0f       	add	r26, r26
     d64:	bb 1f       	adc	r27, r27
     d66:	a2 0f       	add	r26, r18
     d68:	b3 1f       	adc	r27, r19
     d6a:	a8 0f       	add	r26, r24
     d6c:	b9 1f       	adc	r27, r25
     d6e:	af 5b       	subi	r26, 0xBF	; 191
     d70:	bf 4f       	sbci	r27, 0xFF	; 255
     d72:	25 e0       	ldi	r18, 0x05	; 5
     d74:	fe 01       	movw	r30, r28
     d76:	39 96       	adiw	r30, 0x09	; 9
     d78:	01 90       	ld	r0, Z+
     d7a:	0d 92       	st	X+, r0
     d7c:	2a 95       	dec	r18
     d7e:	e1 f7       	brne	.-8      	; 0xd78 <_ZN9OrangeBot5Servo15init_class_varsEv+0x8e>
     d80:	4f 5f       	subi	r20, 0xFF	; 255
     d82:	e8 cf       	rjmp	.-48     	; 0xd54 <_ZN9OrangeBot5Servo15init_class_varsEv+0x6a>
     d84:	80 e0       	ldi	r24, 0x00	; 0
     d86:	2d 96       	adiw	r28, 0x0d	; 13
     d88:	cd bf       	out	0x3d, r28	; 61
     d8a:	de bf       	out	0x3e, r29	; 62
     d8c:	df 91       	pop	r29
     d8e:	cf 91       	pop	r28
     d90:	08 95       	ret

00000d92 <_ZN9OrangeBot5Servo12report_errorENS0_11_Error_codeEj>:
     d92:	fc 01       	movw	r30, r24
     d94:	e5 59       	subi	r30, 0x95	; 149
     d96:	ff 4f       	sbci	r31, 0xFF	; 255
     d98:	20 81       	ld	r18, Z
     d9a:	21 11       	cpse	r18, r1
     d9c:	04 c0       	rjmp	.+8      	; 0xda6 <_ZN9OrangeBot5Servo12report_errorENS0_11_Error_codeEj+0x14>
     d9e:	60 83       	st	Z, r22
     da0:	31 96       	adiw	r30, 0x01	; 1
     da2:	40 83       	st	Z, r20
     da4:	51 83       	std	Z+1, r21	; 0x01
     da6:	81 e0       	ldi	r24, 0x01	; 1
     da8:	08 95       	ret

00000daa <_ZN9OrangeBot5Servo9set_servoEhi>:
     daa:	68 30       	cpi	r22, 0x08	; 8
     dac:	38 f0       	brcs	.+14     	; 0xdbc <_ZN9OrangeBot5Servo9set_servoEhi+0x12>
     dae:	46 e4       	ldi	r20, 0x46	; 70
     db0:	52 e0       	ldi	r21, 0x02	; 2
     db2:	67 e0       	ldi	r22, 0x07	; 7
     db4:	0e 94 c9 06 	call	0xd92	; 0xd92 <_ZN9OrangeBot5Servo12report_errorENS0_11_Error_codeEj>
     db8:	81 e0       	ldi	r24, 0x01	; 1
     dba:	08 95       	ret
     dbc:	9a 01       	movw	r18, r20
     dbe:	20 57       	subi	r18, 0x70	; 112
     dc0:	3e 4f       	sbci	r19, 0xFE	; 254
     dc2:	21 32       	cpi	r18, 0x21	; 33
     dc4:	33 40       	sbci	r19, 0x03	; 3
     dc6:	38 f0       	brcs	.+14     	; 0xdd6 <_ZN9OrangeBot5Servo9set_servoEhi+0x2c>
     dc8:	4c e4       	ldi	r20, 0x4C	; 76
     dca:	52 e0       	ldi	r21, 0x02	; 2
     dcc:	67 e0       	ldi	r22, 0x07	; 7
     dce:	0e 94 c9 06 	call	0xd92	; 0xd92 <_ZN9OrangeBot5Servo12report_errorENS0_11_Error_codeEj>
     dd2:	81 e0       	ldi	r24, 0x01	; 1
     dd4:	08 95       	ret
     dd6:	70 e0       	ldi	r23, 0x00	; 0
     dd8:	db 01       	movw	r26, r22
     dda:	aa 0f       	add	r26, r26
     ddc:	bb 1f       	adc	r27, r27
     dde:	aa 0f       	add	r26, r26
     de0:	bb 1f       	adc	r27, r27
     de2:	aa 0f       	add	r26, r26
     de4:	bb 1f       	adc	r27, r27
     de6:	a8 0f       	add	r26, r24
     de8:	b9 1f       	adc	r27, r25
     dea:	11 96       	adiw	r26, 0x01	; 1
     dec:	2d 91       	ld	r18, X+
     dee:	3c 91       	ld	r19, X
     df0:	12 97       	sbiw	r26, 0x02	; 2
     df2:	42 17       	cp	r20, r18
     df4:	53 07       	cpc	r21, r19
     df6:	39 f0       	breq	.+14     	; 0xe06 <_ZN9OrangeBot5Servo9set_servoEhi+0x5c>
     df8:	fd 01       	movw	r30, r26
     dfa:	41 83       	std	Z+1, r20	; 0x01
     dfc:	52 83       	std	Z+2, r21	; 0x02
     dfe:	81 e0       	ldi	r24, 0x01	; 1
     e00:	85 83       	std	Z+5, r24	; 0x05
     e02:	80 e0       	ldi	r24, 0x00	; 0
     e04:	08 95       	ret
     e06:	80 e0       	ldi	r24, 0x00	; 0
     e08:	08 95       	ret

00000e0a <_ZN9OrangeBot5Servo9set_servoEhij>:
     e0a:	68 30       	cpi	r22, 0x08	; 8
     e0c:	38 f0       	brcs	.+14     	; 0xe1c <_ZN9OrangeBot5Servo9set_servoEhij+0x12>
     e0e:	47 e7       	ldi	r20, 0x77	; 119
     e10:	52 e0       	ldi	r21, 0x02	; 2
     e12:	67 e0       	ldi	r22, 0x07	; 7
     e14:	0e 94 c9 06 	call	0xd92	; 0xd92 <_ZN9OrangeBot5Servo12report_errorENS0_11_Error_codeEj>
     e18:	81 e0       	ldi	r24, 0x01	; 1
     e1a:	08 95       	ret
     e1c:	fa 01       	movw	r30, r20
     e1e:	e0 57       	subi	r30, 0x70	; 112
     e20:	fe 4f       	sbci	r31, 0xFE	; 254
     e22:	e1 32       	cpi	r30, 0x21	; 33
     e24:	f3 40       	sbci	r31, 0x03	; 3
     e26:	38 f0       	brcs	.+14     	; 0xe36 <_ZN9OrangeBot5Servo9set_servoEhij+0x2c>
     e28:	4d e7       	ldi	r20, 0x7D	; 125
     e2a:	52 e0       	ldi	r21, 0x02	; 2
     e2c:	67 e0       	ldi	r22, 0x07	; 7
     e2e:	0e 94 c9 06 	call	0xd92	; 0xd92 <_ZN9OrangeBot5Servo12report_errorENS0_11_Error_codeEj>
     e32:	81 e0       	ldi	r24, 0x01	; 1
     e34:	08 95       	ret
     e36:	70 e0       	ldi	r23, 0x00	; 0
     e38:	fb 01       	movw	r30, r22
     e3a:	ee 0f       	add	r30, r30
     e3c:	ff 1f       	adc	r31, r31
     e3e:	ee 0f       	add	r30, r30
     e40:	ff 1f       	adc	r31, r31
     e42:	ee 0f       	add	r30, r30
     e44:	ff 1f       	adc	r31, r31
     e46:	e8 0f       	add	r30, r24
     e48:	f9 1f       	adc	r31, r25
     e4a:	01 80       	ldd	r0, Z+1	; 0x01
     e4c:	f2 81       	ldd	r31, Z+2	; 0x02
     e4e:	e0 2d       	mov	r30, r0
     e50:	4e 17       	cp	r20, r30
     e52:	5f 07       	cpc	r21, r31
     e54:	69 f0       	breq	.+26     	; 0xe70 <_ZN9OrangeBot5Servo9set_servoEhij+0x66>
     e56:	fb 01       	movw	r30, r22
     e58:	ee 0f       	add	r30, r30
     e5a:	ff 1f       	adc	r31, r31
     e5c:	ee 0f       	add	r30, r30
     e5e:	ff 1f       	adc	r31, r31
     e60:	ee 0f       	add	r30, r30
     e62:	ff 1f       	adc	r31, r31
     e64:	e8 0f       	add	r30, r24
     e66:	f9 1f       	adc	r31, r25
     e68:	41 83       	std	Z+1, r20	; 0x01
     e6a:	52 83       	std	Z+2, r21	; 0x02
     e6c:	41 e0       	ldi	r20, 0x01	; 1
     e6e:	45 83       	std	Z+5, r20	; 0x05
     e70:	fb 01       	movw	r30, r22
     e72:	ee 0f       	add	r30, r30
     e74:	ff 1f       	adc	r31, r31
     e76:	ee 0f       	add	r30, r30
     e78:	ff 1f       	adc	r31, r31
     e7a:	ee 0f       	add	r30, r30
     e7c:	ff 1f       	adc	r31, r31
     e7e:	e8 0f       	add	r30, r24
     e80:	f9 1f       	adc	r31, r25
     e82:	43 81       	ldd	r20, Z+3	; 0x03
     e84:	54 81       	ldd	r21, Z+4	; 0x04
     e86:	42 17       	cp	r20, r18
     e88:	53 07       	cpc	r21, r19
     e8a:	79 f0       	breq	.+30     	; 0xeaa <_ZN9OrangeBot5Servo9set_servoEhij+0xa0>
     e8c:	66 0f       	add	r22, r22
     e8e:	77 1f       	adc	r23, r23
     e90:	66 0f       	add	r22, r22
     e92:	77 1f       	adc	r23, r23
     e94:	66 0f       	add	r22, r22
     e96:	77 1f       	adc	r23, r23
     e98:	fc 01       	movw	r30, r24
     e9a:	e6 0f       	add	r30, r22
     e9c:	f7 1f       	adc	r31, r23
     e9e:	23 83       	std	Z+3, r18	; 0x03
     ea0:	34 83       	std	Z+4, r19	; 0x04
     ea2:	81 e0       	ldi	r24, 0x01	; 1
     ea4:	86 83       	std	Z+6, r24	; 0x06
     ea6:	80 e0       	ldi	r24, 0x00	; 0
     ea8:	08 95       	ret
     eaa:	80 e0       	ldi	r24, 0x00	; 0
     eac:	08 95       	ret

00000eae <_ZN9OrangeBot5Servo4initEv>:
     eae:	0f 93       	push	r16
     eb0:	1f 93       	push	r17
     eb2:	cf 93       	push	r28
     eb4:	8c 01       	movw	r16, r24
     eb6:	0e 94 75 06 	call	0xcea	; 0xcea <_ZN9OrangeBot5Servo15init_class_varsEv>
     eba:	c8 2f       	mov	r28, r24
     ebc:	88 23       	and	r24, r24
     ebe:	31 f0       	breq	.+12     	; 0xecc <_ZN9OrangeBot5Servo4initEv+0x1e>
     ec0:	4c eb       	ldi	r20, 0xBC	; 188
     ec2:	52 e0       	ldi	r21, 0x02	; 2
     ec4:	61 e0       	ldi	r22, 0x01	; 1
     ec6:	c8 01       	movw	r24, r16
     ec8:	0e 94 c9 06 	call	0xd92	; 0xd92 <_ZN9OrangeBot5Servo12report_errorENS0_11_Error_codeEj>
     ecc:	c8 01       	movw	r24, r16
     ece:	0e 94 fc 05 	call	0xbf8	; 0xbf8 <_ZN9OrangeBot5Servo11hal_init_ioEv>
     ed2:	c8 2b       	or	r28, r24
     ed4:	31 f0       	breq	.+12     	; 0xee2 <_ZN9OrangeBot5Servo4initEv+0x34>
     ed6:	43 ec       	ldi	r20, 0xC3	; 195
     ed8:	52 e0       	ldi	r21, 0x02	; 2
     eda:	62 e0       	ldi	r22, 0x02	; 2
     edc:	c8 01       	movw	r24, r16
     ede:	0e 94 c9 06 	call	0xd92	; 0xd92 <_ZN9OrangeBot5Servo12report_errorENS0_11_Error_codeEj>
     ee2:	60 e0       	ldi	r22, 0x00	; 0
     ee4:	70 e0       	ldi	r23, 0x00	; 0
     ee6:	c8 01       	movw	r24, r16
     ee8:	0e 94 1f 06 	call	0xc3e	; 0xc3e <_ZN9OrangeBot5Servo25hal_init_ta0_timeout_modeEj>
     eec:	c8 2b       	or	r28, r24
     eee:	31 f0       	breq	.+12     	; 0xefc <_ZN9OrangeBot5Servo4initEv+0x4e>
     ef0:	4a ec       	ldi	r20, 0xCA	; 202
     ef2:	52 e0       	ldi	r21, 0x02	; 2
     ef4:	63 e0       	ldi	r22, 0x03	; 3
     ef6:	c8 01       	movw	r24, r16
     ef8:	0e 94 c9 06 	call	0xd92	; 0xd92 <_ZN9OrangeBot5Servo12report_errorENS0_11_Error_codeEj>
     efc:	8c 2f       	mov	r24, r28
     efe:	cf 91       	pop	r28
     f00:	1f 91       	pop	r17
     f02:	0f 91       	pop	r16
     f04:	08 95       	ret

00000f06 <_ZN9OrangeBot5ServoC1Ev>:
     f06:	0e 94 57 07 	call	0xeae	; 0xeae <_ZN9OrangeBot5Servo4initEv>
     f0a:	08 95       	ret

00000f0c <_ZN9OrangeBot5Servo12hal_servo_ioEhb>:
     f0c:	0f 93       	push	r16
     f0e:	1f 93       	push	r17
     f10:	06 2f       	mov	r16, r22
     f12:	10 e0       	ldi	r17, 0x00	; 0
     f14:	08 30       	cpi	r16, 0x08	; 8
     f16:	11 05       	cpc	r17, r1
     f18:	08 f0       	brcs	.+2      	; 0xf1c <_ZN9OrangeBot5Servo12hal_servo_ioEhb+0x10>
     f1a:	63 c0       	rjmp	.+198    	; 0xfe2 <_ZN9OrangeBot5Servo12hal_servo_ioEhb+0xd6>
     f1c:	f8 01       	movw	r30, r16
     f1e:	e0 5b       	subi	r30, 0xB0	; 176
     f20:	ff 4f       	sbci	r31, 0xFF	; 255
     f22:	0c 94 61 0c 	jmp	0x18c2	; 0x18c2 <__tablejump2__>
     f26:	e0 e8       	ldi	r30, 0x80	; 128
     f28:	f4 e0       	ldi	r31, 0x04	; 4
     f2a:	84 81       	ldd	r24, Z+4	; 0x04
     f2c:	8e 7f       	andi	r24, 0xFE	; 254
     f2e:	48 2b       	or	r20, r24
     f30:	44 83       	std	Z+4, r20	; 0x04
     f32:	80 e0       	ldi	r24, 0x00	; 0
     f34:	5c c0       	rjmp	.+184    	; 0xfee <_ZN9OrangeBot5Servo12hal_servo_ioEhb+0xe2>
     f36:	e0 e8       	ldi	r30, 0x80	; 128
     f38:	f4 e0       	ldi	r31, 0x04	; 4
     f3a:	84 81       	ldd	r24, Z+4	; 0x04
     f3c:	50 e0       	ldi	r21, 0x00	; 0
     f3e:	44 0f       	add	r20, r20
     f40:	55 1f       	adc	r21, r21
     f42:	8d 7f       	andi	r24, 0xFD	; 253
     f44:	48 2b       	or	r20, r24
     f46:	44 83       	std	Z+4, r20	; 0x04
     f48:	80 e0       	ldi	r24, 0x00	; 0
     f4a:	51 c0       	rjmp	.+162    	; 0xfee <_ZN9OrangeBot5Servo12hal_servo_ioEhb+0xe2>
     f4c:	e0 e8       	ldi	r30, 0x80	; 128
     f4e:	f4 e0       	ldi	r31, 0x04	; 4
     f50:	84 81       	ldd	r24, Z+4	; 0x04
     f52:	50 e0       	ldi	r21, 0x00	; 0
     f54:	44 0f       	add	r20, r20
     f56:	55 1f       	adc	r21, r21
     f58:	44 0f       	add	r20, r20
     f5a:	55 1f       	adc	r21, r21
     f5c:	8b 7f       	andi	r24, 0xFB	; 251
     f5e:	48 2b       	or	r20, r24
     f60:	44 83       	std	Z+4, r20	; 0x04
     f62:	80 e0       	ldi	r24, 0x00	; 0
     f64:	44 c0       	rjmp	.+136    	; 0xfee <_ZN9OrangeBot5Servo12hal_servo_ioEhb+0xe2>
     f66:	e0 e8       	ldi	r30, 0x80	; 128
     f68:	f4 e0       	ldi	r31, 0x04	; 4
     f6a:	84 81       	ldd	r24, Z+4	; 0x04
     f6c:	50 e0       	ldi	r21, 0x00	; 0
     f6e:	44 0f       	add	r20, r20
     f70:	55 1f       	adc	r21, r21
     f72:	44 0f       	add	r20, r20
     f74:	55 1f       	adc	r21, r21
     f76:	44 0f       	add	r20, r20
     f78:	55 1f       	adc	r21, r21
     f7a:	87 7f       	andi	r24, 0xF7	; 247
     f7c:	48 2b       	or	r20, r24
     f7e:	44 83       	std	Z+4, r20	; 0x04
     f80:	80 e0       	ldi	r24, 0x00	; 0
     f82:	35 c0       	rjmp	.+106    	; 0xfee <_ZN9OrangeBot5Servo12hal_servo_ioEhb+0xe2>
     f84:	e0 ea       	ldi	r30, 0xA0	; 160
     f86:	f4 e0       	ldi	r31, 0x04	; 4
     f88:	84 81       	ldd	r24, Z+4	; 0x04
     f8a:	8e 7f       	andi	r24, 0xFE	; 254
     f8c:	48 2b       	or	r20, r24
     f8e:	44 83       	std	Z+4, r20	; 0x04
     f90:	80 e0       	ldi	r24, 0x00	; 0
     f92:	2d c0       	rjmp	.+90     	; 0xfee <_ZN9OrangeBot5Servo12hal_servo_ioEhb+0xe2>
     f94:	e0 ea       	ldi	r30, 0xA0	; 160
     f96:	f4 e0       	ldi	r31, 0x04	; 4
     f98:	84 81       	ldd	r24, Z+4	; 0x04
     f9a:	50 e0       	ldi	r21, 0x00	; 0
     f9c:	44 0f       	add	r20, r20
     f9e:	55 1f       	adc	r21, r21
     fa0:	8d 7f       	andi	r24, 0xFD	; 253
     fa2:	48 2b       	or	r20, r24
     fa4:	44 83       	std	Z+4, r20	; 0x04
     fa6:	80 e0       	ldi	r24, 0x00	; 0
     fa8:	22 c0       	rjmp	.+68     	; 0xfee <_ZN9OrangeBot5Servo12hal_servo_ioEhb+0xe2>
     faa:	e0 ea       	ldi	r30, 0xA0	; 160
     fac:	f4 e0       	ldi	r31, 0x04	; 4
     fae:	84 81       	ldd	r24, Z+4	; 0x04
     fb0:	50 e0       	ldi	r21, 0x00	; 0
     fb2:	44 0f       	add	r20, r20
     fb4:	55 1f       	adc	r21, r21
     fb6:	44 0f       	add	r20, r20
     fb8:	55 1f       	adc	r21, r21
     fba:	8b 7f       	andi	r24, 0xFB	; 251
     fbc:	48 2b       	or	r20, r24
     fbe:	44 83       	std	Z+4, r20	; 0x04
     fc0:	80 e0       	ldi	r24, 0x00	; 0
     fc2:	15 c0       	rjmp	.+42     	; 0xfee <_ZN9OrangeBot5Servo12hal_servo_ioEhb+0xe2>
     fc4:	e0 ea       	ldi	r30, 0xA0	; 160
     fc6:	f4 e0       	ldi	r31, 0x04	; 4
     fc8:	84 81       	ldd	r24, Z+4	; 0x04
     fca:	50 e0       	ldi	r21, 0x00	; 0
     fcc:	44 0f       	add	r20, r20
     fce:	55 1f       	adc	r21, r21
     fd0:	44 0f       	add	r20, r20
     fd2:	55 1f       	adc	r21, r21
     fd4:	44 0f       	add	r20, r20
     fd6:	55 1f       	adc	r21, r21
     fd8:	87 7f       	andi	r24, 0xF7	; 247
     fda:	48 2b       	or	r20, r24
     fdc:	44 83       	std	Z+4, r20	; 0x04
     fde:	80 e0       	ldi	r24, 0x00	; 0
     fe0:	06 c0       	rjmp	.+12     	; 0xfee <_ZN9OrangeBot5Servo12hal_servo_ioEhb+0xe2>
     fe2:	47 e3       	ldi	r20, 0x37	; 55
     fe4:	53 e0       	ldi	r21, 0x03	; 3
     fe6:	64 e0       	ldi	r22, 0x04	; 4
     fe8:	0e 94 c9 06 	call	0xd92	; 0xd92 <_ZN9OrangeBot5Servo12report_errorENS0_11_Error_codeEj>
     fec:	81 e0       	ldi	r24, 0x01	; 1
     fee:	1f 91       	pop	r17
     ff0:	0f 91       	pop	r16
     ff2:	08 95       	ret

00000ff4 <_ZN9OrangeBot5Servo26hal_microseconds_to_countsEj>:
     ff4:	cf 93       	push	r28
     ff6:	df 93       	push	r29
     ff8:	ec 01       	movw	r28, r24
     ffa:	9b 01       	movw	r18, r22
     ffc:	a8 ee       	ldi	r26, 0xE8	; 232
     ffe:	b3 e0       	ldi	r27, 0x03	; 3
    1000:	0e 94 67 0c 	call	0x18ce	; 0x18ce <__umulhisi3>
    1004:	20 e2       	ldi	r18, 0x20	; 32
    1006:	33 e0       	ldi	r19, 0x03	; 3
    1008:	40 e0       	ldi	r20, 0x00	; 0
    100a:	50 e0       	ldi	r21, 0x00	; 0
    100c:	0e 94 3f 0c 	call	0x187e	; 0x187e <__udivmodsi4>
    1010:	2e 3f       	cpi	r18, 0xFE	; 254
    1012:	8f ef       	ldi	r24, 0xFF	; 255
    1014:	38 07       	cpc	r19, r24
    1016:	41 05       	cpc	r20, r1
    1018:	51 05       	cpc	r21, r1
    101a:	48 f0       	brcs	.+18     	; 0x102e <_ZN9OrangeBot5Servo26hal_microseconds_to_countsEj+0x3a>
    101c:	ce 01       	movw	r24, r28
    101e:	4f e0       	ldi	r20, 0x0F	; 15
    1020:	55 e0       	ldi	r21, 0x05	; 5
    1022:	66 e0       	ldi	r22, 0x06	; 6
    1024:	0e 94 c9 06 	call	0xd92	; 0xd92 <_ZN9OrangeBot5Servo12report_errorENS0_11_Error_codeEj>
    1028:	8f ef       	ldi	r24, 0xFF	; 255
    102a:	9f ef       	ldi	r25, 0xFF	; 255
    102c:	01 c0       	rjmp	.+2      	; 0x1030 <_ZN9OrangeBot5Servo26hal_microseconds_to_countsEj+0x3c>
    102e:	c9 01       	movw	r24, r18
    1030:	df 91       	pop	r29
    1032:	cf 91       	pop	r28
    1034:	08 95       	ret

00001036 <_ZN9OrangeBot5Servo19hal_timer_set_delayEj>:
    1036:	0f 93       	push	r16
    1038:	1f 93       	push	r17
    103a:	cf 93       	push	r28
    103c:	df 93       	push	r29
    103e:	ec 01       	movw	r28, r24
    1040:	cb 01       	movw	r24, r22
    1042:	8c 54       	subi	r24, 0x4C	; 76
    1044:	94 40       	sbci	r25, 0x04	; 4
    1046:	85 3d       	cpi	r24, 0xD5	; 213
    1048:	99 44       	sbci	r25, 0x49	; 73
    104a:	40 f0       	brcs	.+16     	; 0x105c <_ZN9OrangeBot5Servo19hal_timer_set_delayEj+0x26>
    104c:	43 e3       	ldi	r20, 0x33	; 51
    104e:	55 e0       	ldi	r21, 0x05	; 5
    1050:	67 e0       	ldi	r22, 0x07	; 7
    1052:	ce 01       	movw	r24, r28
    1054:	0e 94 c9 06 	call	0xd92	; 0xd92 <_ZN9OrangeBot5Servo12report_errorENS0_11_Error_codeEj>
    1058:	81 e0       	ldi	r24, 0x01	; 1
    105a:	2c c0       	rjmp	.+88     	; 0x10b4 <_ZN9OrangeBot5Servo19hal_timer_set_delayEj+0x7e>
    105c:	e0 e0       	ldi	r30, 0x00	; 0
    105e:	fa e0       	ldi	r31, 0x0A	; 10
    1060:	80 81       	ld	r24, Z
    1062:	8e 7f       	andi	r24, 0xFE	; 254
    1064:	80 83       	st	Z, r24
    1066:	00 a1       	ldd	r16, Z+32	; 0x20
    1068:	11 a1       	ldd	r17, Z+33	; 0x21
    106a:	ce 01       	movw	r24, r28
    106c:	0e 94 fa 07 	call	0xff4	; 0xff4 <_ZN9OrangeBot5Servo26hal_microseconds_to_countsEj>
    1070:	9c 01       	movw	r18, r24
    1072:	21 50       	subi	r18, 0x01	; 1
    1074:	31 09       	sbc	r19, r1
    1076:	2e 3f       	cpi	r18, 0xFE	; 254
    1078:	4f ef       	ldi	r20, 0xFF	; 255
    107a:	34 07       	cpc	r19, r20
    107c:	40 f0       	brcs	.+16     	; 0x108e <_ZN9OrangeBot5Servo19hal_timer_set_delayEj+0x58>
    107e:	44 e4       	ldi	r20, 0x44	; 68
    1080:	55 e0       	ldi	r21, 0x05	; 5
    1082:	66 e0       	ldi	r22, 0x06	; 6
    1084:	ce 01       	movw	r24, r28
    1086:	0e 94 c9 06 	call	0xd92	; 0xd92 <_ZN9OrangeBot5Servo12report_errorENS0_11_Error_codeEj>
    108a:	81 e0       	ldi	r24, 0x01	; 1
    108c:	13 c0       	rjmp	.+38     	; 0x10b4 <_ZN9OrangeBot5Servo19hal_timer_set_delayEj+0x7e>
    108e:	08 17       	cp	r16, r24
    1090:	19 07       	cpc	r17, r25
    1092:	40 f0       	brcs	.+16     	; 0x10a4 <_ZN9OrangeBot5Servo19hal_timer_set_delayEj+0x6e>
    1094:	4b e4       	ldi	r20, 0x4B	; 75
    1096:	55 e0       	ldi	r21, 0x05	; 5
    1098:	65 e0       	ldi	r22, 0x05	; 5
    109a:	ce 01       	movw	r24, r28
    109c:	0e 94 c9 06 	call	0xd92	; 0xd92 <_ZN9OrangeBot5Servo12report_errorENS0_11_Error_codeEj>
    10a0:	81 e0       	ldi	r24, 0x01	; 1
    10a2:	08 c0       	rjmp	.+16     	; 0x10b4 <_ZN9OrangeBot5Servo19hal_timer_set_delayEj+0x7e>
    10a4:	e0 e0       	ldi	r30, 0x00	; 0
    10a6:	fa e0       	ldi	r31, 0x0A	; 10
    10a8:	26 a3       	std	Z+38, r18	; 0x26
    10aa:	37 a3       	std	Z+39, r19	; 0x27
    10ac:	80 81       	ld	r24, Z
    10ae:	81 60       	ori	r24, 0x01	; 1
    10b0:	80 83       	st	Z, r24
    10b2:	80 e0       	ldi	r24, 0x00	; 0
    10b4:	df 91       	pop	r29
    10b6:	cf 91       	pop	r28
    10b8:	1f 91       	pop	r17
    10ba:	0f 91       	pop	r16
    10bc:	08 95       	ret

000010be <_ZN9OrangeBot5Servo10soft_startEhhhh>:
//!	\n	Blocking hardwired version of the soft start method using delay and direct control of IOs
//!	\n	@TODO: I can use TCA0 to emit pulses to EVOUTD in PWM mode for the soft start
/***************************************************************************/

bool Servo::soft_start( uint8_t iu8_ton, uint8_t iu8_toff, uint8_t iu8_treduce, uint8_t iu8_repeat )
{
    10be:	bf 92       	push	r11
    10c0:	cf 92       	push	r12
    10c2:	df 92       	push	r13
    10c4:	ef 92       	push	r14
    10c6:	ff 92       	push	r15
    10c8:	0f 93       	push	r16
    10ca:	1f 93       	push	r17
    10cc:	cf 93       	push	r28
    10ce:	df 93       	push	r29
    10d0:	7c 01       	movw	r14, r24
    10d2:	16 2f       	mov	r17, r22
    10d4:	d4 2f       	mov	r29, r20
    10d6:	c2 2e       	mov	r12, r18
	//----------------------------------------------------------------
	//	VARS
	//----------------------------------------------------------------

	bool u1_continue = true;
    10d8:	bb 24       	eor	r11, r11
    10da:	b3 94       	inc	r11
	//----------------------------------------------------------------
	//	BODY
	//----------------------------------------------------------------

	//While not done
	while (u1_continue == true)
    10dc:	bb 20       	and	r11, r11
    10de:	49 f1       	breq	.+82     	; 0x1132 <_ZN9OrangeBot5Servo10soft_startEhhhh+0x74>
	{
		//if: there is room to reduce Toff
		if (iu8_toff > iu8_treduce)
    10e0:	cd 16       	cp	r12, r29
    10e2:	08 f5       	brcc	.+66     	; 0x1126 <_ZN9OrangeBot5Servo10soft_startEhhhh+0x68>
    10e4:	d1 2c       	mov	r13, r1
		{
			//For each repeat
			for (uint8_t u8_tmp = 0; u8_tmp < iu8_repeat; u8_tmp++)
    10e6:	d0 16       	cp	r13, r16
    10e8:	d8 f4       	brcc	.+54     	; 0x1120 <_ZN9OrangeBot5Servo10soft_startEhhhh+0x62>
			{
				//Power on
				CLEAR_BIT( SERVO_PWR_PORT.OUT, SERVO_PWR_PIN );
    10ea:	e0 e6       	ldi	r30, 0x60	; 96
    10ec:	f4 e0       	ldi	r31, 0x04	; 4
    10ee:	84 81       	ldd	r24, Z+4	; 0x04
    10f0:	8f 77       	andi	r24, 0x7F	; 127
    10f2:	84 83       	std	Z+4, r24	; 0x04
				
				for (uint8_t u8_tmp_b = 0; u8_tmp_b < iu8_ton; u8_tmp_b++)
    10f4:	c0 e0       	ldi	r28, 0x00	; 0
    10f6:	c1 17       	cp	r28, r17
    10f8:	28 f4       	brcc	.+10     	; 0x1104 <_ZN9OrangeBot5Servo10soft_startEhhhh+0x46>
				{
					this->hal_delay_us();
    10fa:	c7 01       	movw	r24, r14
    10fc:	0e 94 4d 06 	call	0xc9a	; 0xc9a <_ZN9OrangeBot5Servo12hal_delay_usEv>
			for (uint8_t u8_tmp = 0; u8_tmp < iu8_repeat; u8_tmp++)
			{
				//Power on
				CLEAR_BIT( SERVO_PWR_PORT.OUT, SERVO_PWR_PIN );
				
				for (uint8_t u8_tmp_b = 0; u8_tmp_b < iu8_ton; u8_tmp_b++)
    1100:	cf 5f       	subi	r28, 0xFF	; 255
    1102:	f9 cf       	rjmp	.-14     	; 0x10f6 <_ZN9OrangeBot5Servo10soft_startEhhhh+0x38>
				{
					this->hal_delay_us();
				}
				
				//Power Off
				this -> hal_power( false );
    1104:	60 e0       	ldi	r22, 0x00	; 0
    1106:	c7 01       	movw	r24, r14
    1108:	0e 94 53 06 	call	0xca6	; 0xca6 <_ZN9OrangeBot5Servo9hal_powerEb>
				
				//Wait
				for (uint8_t u8_tmp_b = 0; u8_tmp_b < iu8_toff; u8_tmp_b++)
    110c:	c0 e0       	ldi	r28, 0x00	; 0
    110e:	cd 17       	cp	r28, r29
    1110:	28 f4       	brcc	.+10     	; 0x111c <_ZN9OrangeBot5Servo10soft_startEhhhh+0x5e>
				{
					this->hal_delay_us();
    1112:	c7 01       	movw	r24, r14
    1114:	0e 94 4d 06 	call	0xc9a	; 0xc9a <_ZN9OrangeBot5Servo12hal_delay_usEv>
				
				//Power Off
				this -> hal_power( false );
				
				//Wait
				for (uint8_t u8_tmp_b = 0; u8_tmp_b < iu8_toff; u8_tmp_b++)
    1118:	cf 5f       	subi	r28, 0xFF	; 255
    111a:	f9 cf       	rjmp	.-14     	; 0x110e <_ZN9OrangeBot5Servo10soft_startEhhhh+0x50>
	{
		//if: there is room to reduce Toff
		if (iu8_toff > iu8_treduce)
		{
			//For each repeat
			for (uint8_t u8_tmp = 0; u8_tmp < iu8_repeat; u8_tmp++)
    111c:	d3 94       	inc	r13
    111e:	e3 cf       	rjmp	.-58     	; 0x10e6 <_ZN9OrangeBot5Servo10soft_startEhhhh+0x28>
					this->hal_delay_us();
				}
			}
			
			//Increase Ton
			iu8_ton = iu8_ton+iu8_treduce;
    1120:	1c 0d       	add	r17, r12
			//Reduce Toff
			iu8_toff = iu8_toff-iu8_treduce;
    1122:	dc 19       	sub	r29, r12
    1124:	db cf       	rjmp	.-74     	; 0x10dc <_ZN9OrangeBot5Servo10soft_startEhhhh+0x1e>
		}
		//if: Reached Toff = 0
		else
		{
			//Power on
			this -> hal_power( true );
    1126:	61 e0       	ldi	r22, 0x01	; 1
    1128:	c7 01       	movw	r24, r14
    112a:	0e 94 53 06 	call	0xca6	; 0xca6 <_ZN9OrangeBot5Servo9hal_powerEb>
			//Break cycle
			u1_continue = false;
    112e:	b1 2c       	mov	r11, r1
    1130:	d5 cf       	rjmp	.-86     	; 0x10dc <_ZN9OrangeBot5Servo10soft_startEhhhh+0x1e>
	//----------------------------------------------------------------
	//	RETURN
	//----------------------------------------------------------------
	
	return false;	//OK
}	//End private method: soft_start | uint8_t | uint8_t | uint8_t | uint8_t
    1132:	80 e0       	ldi	r24, 0x00	; 0
    1134:	df 91       	pop	r29
    1136:	cf 91       	pop	r28
    1138:	1f 91       	pop	r17
    113a:	0f 91       	pop	r16
    113c:	ff 90       	pop	r15
    113e:	ef 90       	pop	r14
    1140:	df 90       	pop	r13
    1142:	cf 90       	pop	r12
    1144:	bf 90       	pop	r11
    1146:	08 95       	ret

00001148 <_ZN9OrangeBot5Servo5powerEb>:
//! \n	power the servomotors
//! \n	starts the ISR driver to scan the servos
/***************************************************************************/

bool Servo::power( bool iu1_powered )
{
    1148:	0f 93       	push	r16
    114a:	1f 93       	push	r17
    114c:	cf 93       	push	r28
    114e:	df 93       	push	r29
    1150:	ec 01       	movw	r28, r24
	///--------------------------------------------------------------------------
	///	BODY
	///--------------------------------------------------------------------------

	//SERVO OFF
	if (iu1_powered == false)
    1152:	61 11       	cpse	r22, r1
    1154:	08 c0       	rjmp	.+16     	; 0x1166 <_ZN9OrangeBot5Servo5powerEb+0x1e>
	{
		//Turn off SERVO bank
		u1_ret = this -> hal_power( false );
    1156:	0e 94 53 06 	call	0xca6	; 0xca6 <_ZN9OrangeBot5Servo9hal_powerEb>
    115a:	18 2f       	mov	r17, r24
		//Stop the ISR
		this ->hal_run_isr( false );
    115c:	60 e0       	ldi	r22, 0x00	; 0
    115e:	ce 01       	movw	r24, r28
    1160:	0e 94 62 06 	call	0xcc4	; 0xcc4 <_ZN9OrangeBot5Servo11hal_run_isrEb>
    1164:	0b c0       	rjmp	.+22     	; 0x117c <_ZN9OrangeBot5Servo5powerEb+0x34>
	}
	//SERVO ON
	else
	{
		//Use a blocking soft start delay based routine
		u1_ret = this -> soft_start( Config::SOFT_START_TON, Config::SOFT_START_TOFF, Config::SOFT_START_TREDUCE, Config::SOFT_START_REPEAT );
    1166:	02 e0       	ldi	r16, 0x02	; 2
    1168:	21 e0       	ldi	r18, 0x01	; 1
    116a:	44 e6       	ldi	r20, 0x64	; 100
    116c:	6a e0       	ldi	r22, 0x0A	; 10
    116e:	0e 94 5f 08 	call	0x10be	; 0x10be <_ZN9OrangeBot5Servo10soft_startEhhhh>
    1172:	18 2f       	mov	r17, r24
		//Start the ISR
		this -> hal_run_isr( true );
    1174:	61 e0       	ldi	r22, 0x01	; 1
    1176:	ce 01       	movw	r24, r28
    1178:	0e 94 62 06 	call	0xcc4	; 0xcc4 <_ZN9OrangeBot5Servo11hal_run_isrEb>
	///--------------------------------------------------------------------------
	///	RETURN
	///--------------------------------------------------------------------------
	DRETURN_ARG("Success: %d", u1_ret); //Trace Return
	return u1_ret;	//Propagate Error
}   //end public method: power | void
    117c:	81 2f       	mov	r24, r17
    117e:	df 91       	pop	r29
    1180:	cf 91       	pop	r28
    1182:	1f 91       	pop	r17
    1184:	0f 91       	pop	r16
    1186:	08 95       	ret

00001188 <_ZN9OrangeBot5Servo14clear_servo_ioEv>:
//! @details
//! \n Clear all servo IO lines
/***************************************************************************/

bool Servo::clear_servo_io( void )
{
    1188:	0f 93       	push	r16
    118a:	1f 93       	push	r17
    118c:	cf 93       	push	r28
    118e:	df 93       	push	r29
    1190:	8c 01       	movw	r16, r24
	///--------------------------------------------------------------------------

	//Clear error
	bool u1_ret = false;
	//For all servos
	for (uint8_t u8_cnt = 0; u8_cnt < Config::NUM_SERVOS; u8_cnt++)
    1192:	c0 e0       	ldi	r28, 0x00	; 0
	///--------------------------------------------------------------------------
	///	BODY
	///--------------------------------------------------------------------------

	//Clear error
	bool u1_ret = false;
    1194:	d0 e0       	ldi	r29, 0x00	; 0
	//For all servos
	for (uint8_t u8_cnt = 0; u8_cnt < Config::NUM_SERVOS; u8_cnt++)
    1196:	c8 30       	cpi	r28, 0x08	; 8
    1198:	40 f4       	brcc	.+16     	; 0x11aa <_ZN9OrangeBot5Servo14clear_servo_ioEv+0x22>
	{
		//Try and clear that servo IO and accumulate error
		u1_ret |= this -> hal_servo_io( u8_cnt, false );
    119a:	40 e0       	ldi	r20, 0x00	; 0
    119c:	6c 2f       	mov	r22, r28
    119e:	c8 01       	movw	r24, r16
    11a0:	0e 94 86 07 	call	0xf0c	; 0xf0c <_ZN9OrangeBot5Servo12hal_servo_ioEhb>
    11a4:	d8 2b       	or	r29, r24
	///--------------------------------------------------------------------------

	//Clear error
	bool u1_ret = false;
	//For all servos
	for (uint8_t u8_cnt = 0; u8_cnt < Config::NUM_SERVOS; u8_cnt++)
    11a6:	cf 5f       	subi	r28, 0xFF	; 255
    11a8:	f6 cf       	rjmp	.-20     	; 0x1196 <_ZN9OrangeBot5Servo14clear_servo_ioEv+0xe>
	///--------------------------------------------------------------------------
	///	RETURN
	///--------------------------------------------------------------------------
	DRETURN_ARG("fail? %d\n", u1_ret); //Trace Return
	return u1_ret;	//Propagate error
}   //end private method: clear_servo_io | void
    11aa:	8d 2f       	mov	r24, r29
    11ac:	df 91       	pop	r29
    11ae:	cf 91       	pop	r28
    11b0:	1f 91       	pop	r17
    11b2:	0f 91       	pop	r16
    11b4:	08 95       	ret

000011b6 <_ZN9OrangeBot5Servo14emergency_stopEv>:
//! @details
//! \n Stop driver. Clear IO lines. Reinitialize class vars.
/***************************************************************************/

bool Servo::emergency_stop( void )
{
    11b6:	0f 93       	push	r16
    11b8:	1f 93       	push	r17
    11ba:	cf 93       	push	r28
    11bc:	8c 01       	movw	r16, r24
	///--------------------------------------------------------------------------

	//Initialize error to OK
	bool u1_ret = false;
	//Stop timer
	u1_ret |= this -> hal_run_isr( false );
    11be:	60 e0       	ldi	r22, 0x00	; 0
    11c0:	0e 94 62 06 	call	0xcc4	; 0xcc4 <_ZN9OrangeBot5Servo11hal_run_isrEb>
    11c4:	c8 2f       	mov	r28, r24
	//Clear servo IOs
	u1_ret |= this -> clear_servo_io();
    11c6:	c8 01       	movw	r24, r16
    11c8:	0e 94 c4 08 	call	0x1188	; 0x1188 <_ZN9OrangeBot5Servo14clear_servo_ioEv>
    11cc:	c8 2b       	or	r28, r24
	//Reinitialize class vars (except error)
	u1_ret |= this -> init_class_vars();
    11ce:	c8 01       	movw	r24, r16
    11d0:	0e 94 75 06 	call	0xcea	; 0xcea <_ZN9OrangeBot5Servo15init_class_varsEv>
	///--------------------------------------------------------------------------
	///	RETURN
	///--------------------------------------------------------------------------
	DRETURN_ARG("Fail? %d\n", u1_ret); //Trace Return
	return u1_ret;	//Propagate error
}   //end private method: emergency_stop | void
    11d4:	8c 2b       	or	r24, r28
    11d6:	cf 91       	pop	r28
    11d8:	1f 91       	pop	r17
    11da:	0f 91       	pop	r16
    11dc:	08 95       	ret

000011de <_ZN9OrangeBot5Servo19compute_servo_delayEhRj>:
//! @details
//! \n The driver uses command position and speed, and actual delay, to compute next delay
/***************************************************************************/

bool Servo::compute_servo_delay( uint8_t iu8_index, uint16_t &ou16_delay )
{
    11de:	ff 92       	push	r15
    11e0:	0f 93       	push	r16
    11e2:	1f 93       	push	r17
    11e4:	cf 93       	push	r28
    11e6:	df 93       	push	r29
    11e8:	ec 01       	movw	r28, r24
    11ea:	8a 01       	movw	r16, r20
	///--------------------------------------------------------------------------
	///	CHECK
	///--------------------------------------------------------------------------

	//If Servo index is OOB
	if ((Config::PEDANTIC_CHECKS == true) && ((iu8_index < 0) || (iu8_index >= Config::NUM_SERVOS)))
    11ec:	68 30       	cpi	r22, 0x08	; 8
    11ee:	68 f0       	brcs	.+26     	; 0x120a <_ZN9OrangeBot5Servo19compute_servo_delayEhRj+0x2c>
	{
		this -> report_error( Error_code::ERR_INPUT_OOB, __LINE__ );
    11f0:	48 eb       	ldi	r20, 0xB8	; 184
    11f2:	56 e0       	ldi	r21, 0x06	; 6
    11f4:	67 e0       	ldi	r22, 0x07	; 7
    11f6:	0e 94 c9 06 	call	0xd92	; 0xd92 <_ZN9OrangeBot5Servo12report_errorENS0_11_Error_codeEj>
		ou16_delay = Config::HAL_TIMER_MAX_CNT;
    11fa:	8f ef       	ldi	r24, 0xFF	; 255
    11fc:	9f ef       	ldi	r25, 0xFF	; 255
    11fe:	f8 01       	movw	r30, r16
    1200:	80 83       	st	Z, r24
    1202:	91 83       	std	Z+1, r25	; 0x01
		return true;
    1204:	ff 24       	eor	r15, r15
    1206:	f3 94       	inc	r15
    1208:	9c c1       	rjmp	.+824    	; 0x1542 <_ZN9OrangeBot5Servo19compute_servo_delayEhRj+0x364>
	///	COMMAND -> STATUS
	///--------------------------------------------------------------------------
	//	The driver check if command has changed and saves the vars inside the timer status vars

	//If command position changed
	if (gast_command[iu8_index].u1_position_changed == true)
    120a:	46 2f       	mov	r20, r22
    120c:	50 e0       	ldi	r21, 0x00	; 0
    120e:	fa 01       	movw	r30, r20
    1210:	ee 0f       	add	r30, r30
    1212:	ff 1f       	adc	r31, r31
    1214:	ee 0f       	add	r30, r30
    1216:	ff 1f       	adc	r31, r31
    1218:	ee 0f       	add	r30, r30
    121a:	ff 1f       	adc	r31, r31
    121c:	e8 0f       	add	r30, r24
    121e:	f9 1f       	adc	r31, r25
    1220:	f5 80       	ldd	r15, Z+5	; 0x05
    1222:	ff 20       	and	r15, r15
    1224:	b1 f1       	breq	.+108    	; 0x1292 <_ZN9OrangeBot5Servo19compute_servo_delayEhRj+0xb4>
	{
		//Fetch position
		int16_t s16_tmp = gast_command[iu8_index].s16_position;
    1226:	fa 01       	movw	r30, r20
    1228:	ee 0f       	add	r30, r30
    122a:	ff 1f       	adc	r31, r31
    122c:	ee 0f       	add	r30, r30
    122e:	ff 1f       	adc	r31, r31
    1230:	ee 0f       	add	r30, r30
    1232:	ff 1f       	adc	r31, r31
    1234:	e8 0f       	add	r30, r24
    1236:	f9 1f       	adc	r31, r25
    1238:	81 81       	ldd	r24, Z+1	; 0x01
    123a:	92 81       	ldd	r25, Z+2	; 0x02
		if ((Config::PEDANTIC_CHECKS == true) && ( (s16_tmp < -(int16_t)Config::SERVO_PPM_MAX_COMMAND) || (s16_tmp > (int16_t)Config::SERVO_PPM_MAX_COMMAND) ))
    123c:	9c 01       	movw	r18, r24
    123e:	20 57       	subi	r18, 0x70	; 112
    1240:	3e 4f       	sbci	r19, 0xFE	; 254
    1242:	21 32       	cpi	r18, 0x21	; 33
    1244:	33 40       	sbci	r19, 0x03	; 3
    1246:	60 f0       	brcs	.+24     	; 0x1260 <_ZN9OrangeBot5Servo19compute_servo_delayEhRj+0x82>
		{
			//Algorithmic error. The class should make sure that user can't write bollocks inside the position
			this -> report_error( Error_code::ERR_ALGORITHM, __LINE__  );
    1248:	4a ec       	ldi	r20, 0xCA	; 202
    124a:	56 e0       	ldi	r21, 0x06	; 6
    124c:	68 e0       	ldi	r22, 0x08	; 8
    124e:	ce 01       	movw	r24, r28
    1250:	0e 94 c9 06 	call	0xd92	; 0xd92 <_ZN9OrangeBot5Servo12report_errorENS0_11_Error_codeEj>
			ou16_delay = Config::HAL_TIMER_MAX_CNT;
    1254:	8f ef       	ldi	r24, 0xFF	; 255
    1256:	9f ef       	ldi	r25, 0xFF	; 255
    1258:	f8 01       	movw	r30, r16
    125a:	80 83       	st	Z, r24
    125c:	91 83       	std	Z+1, r25	; 0x01
			return true;
    125e:	71 c1       	rjmp	.+738    	; 0x1542 <_ZN9OrangeBot5Servo19compute_servo_delayEhRj+0x364>
		}
		//The target delay is the delay to achieve zero position plus the deviation
		gast_timer[iu8_index].u16_target = Config::SERVO_PPM_ZERO +s16_tmp;
    1260:	84 52       	subi	r24, 0x24	; 36
    1262:	9a 4f       	sbci	r25, 0xFA	; 250
    1264:	fa 01       	movw	r30, r20
    1266:	ee 0f       	add	r30, r30
    1268:	ff 1f       	adc	r31, r31
    126a:	ee 0f       	add	r30, r30
    126c:	ff 1f       	adc	r31, r31
    126e:	e4 0f       	add	r30, r20
    1270:	f5 1f       	adc	r31, r21
    1272:	ec 0f       	add	r30, r28
    1274:	fd 1f       	adc	r31, r29
    1276:	ef 5b       	subi	r30, 0xBF	; 191
    1278:	ff 4f       	sbci	r31, 0xFF	; 255
    127a:	80 83       	st	Z, r24
    127c:	91 83       	std	Z+1, r25	; 0x01
		//status and command are synced
		gast_command[iu8_index].u1_position_changed = false;
    127e:	fa 01       	movw	r30, r20
    1280:	ee 0f       	add	r30, r30
    1282:	ff 1f       	adc	r31, r31
    1284:	ee 0f       	add	r30, r30
    1286:	ff 1f       	adc	r31, r31
    1288:	ee 0f       	add	r30, r30
    128a:	ff 1f       	adc	r31, r31
    128c:	ec 0f       	add	r30, r28
    128e:	fd 1f       	adc	r31, r29
    1290:	15 82       	std	Z+5, r1	; 0x05
	}

	//Latch speed limit in microseconds per 20ms
	uint8_t u8_speed = 0;
	//If command speed changed
	if (gast_command[iu8_index].u1_speed_changed == true)
    1292:	fa 01       	movw	r30, r20
    1294:	ee 0f       	add	r30, r30
    1296:	ff 1f       	adc	r31, r31
    1298:	ee 0f       	add	r30, r30
    129a:	ff 1f       	adc	r31, r31
    129c:	ee 0f       	add	r30, r30
    129e:	ff 1f       	adc	r31, r31
    12a0:	ec 0f       	add	r30, r28
    12a2:	fd 1f       	adc	r31, r29
    12a4:	f6 80       	ldd	r15, Z+6	; 0x06
    12a6:	ff 20       	and	r15, r15
    12a8:	09 f4       	brne	.+2      	; 0x12ac <_ZN9OrangeBot5Servo19compute_servo_delayEhRj+0xce>
    12aa:	4c c0       	rjmp	.+152    	; 0x1344 <_ZN9OrangeBot5Servo19compute_servo_delayEhRj+0x166>
	{
		//Fetch position
		uint16_t u16_tmp = gast_command[iu8_index].u16_speed;
    12ac:	fa 01       	movw	r30, r20
    12ae:	ee 0f       	add	r30, r30
    12b0:	ff 1f       	adc	r31, r31
    12b2:	ee 0f       	add	r30, r30
    12b4:	ff 1f       	adc	r31, r31
    12b6:	ee 0f       	add	r30, r30
    12b8:	ff 1f       	adc	r31, r31
    12ba:	ec 0f       	add	r30, r28
    12bc:	fd 1f       	adc	r31, r29
    12be:	23 81       	ldd	r18, Z+3	; 0x03
    12c0:	34 81       	ldd	r19, Z+4	; 0x04
		//If speed limiter is disabled
		if (u16_tmp == 0)
    12c2:	21 15       	cp	r18, r1
    12c4:	31 05       	cpc	r19, r1
    12c6:	71 f4       	brne	.+28     	; 0x12e4 <_ZN9OrangeBot5Servo19compute_servo_delayEhRj+0x106>
		{
			//Update internal timer status
			gast_timer[iu8_index].u8_speed = 0;	
    12c8:	fa 01       	movw	r30, r20
    12ca:	ee 0f       	add	r30, r30
    12cc:	ff 1f       	adc	r31, r31
    12ce:	ee 0f       	add	r30, r30
    12d0:	ff 1f       	adc	r31, r31
    12d2:	e4 0f       	add	r30, r20
    12d4:	f5 1f       	adc	r31, r21
    12d6:	ec 0f       	add	r30, r28
    12d8:	fd 1f       	adc	r31, r29
    12da:	ed 5b       	subi	r30, 0xBD	; 189
    12dc:	ff 4f       	sbci	r31, 0xFF	; 255
    12de:	10 82       	st	Z, r1
		//status and command are synced
		gast_command[iu8_index].u1_position_changed = false;
	}

	//Latch speed limit in microseconds per 20ms
	uint8_t u8_speed = 0;
    12e0:	60 e0       	ldi	r22, 0x00	; 0
    12e2:	25 c0       	rjmp	.+74     	; 0x132e <_ZN9OrangeBot5Servo19compute_servo_delayEhRj+0x150>
		}
		//if speed limiter is active
		else
		{
			//The target speed is the speed multiplied by the number of PPM cycles in a second
			u16_tmp /= Config::SERVO_PPM_FREQUENCY;
    12e4:	36 95       	lsr	r19
    12e6:	27 95       	ror	r18
    12e8:	ab e7       	ldi	r26, 0x7B	; 123
    12ea:	b4 e1       	ldi	r27, 0x14	; 20
    12ec:	0e 94 67 0c 	call	0x18ce	; 0x18ce <__umulhisi3>
    12f0:	96 95       	lsr	r25
    12f2:	87 95       	ror	r24
			if (u16_tmp > 255)
    12f4:	8f 3f       	cpi	r24, 0xFF	; 255
    12f6:	91 05       	cpc	r25, r1
    12f8:	69 f0       	breq	.+26     	; 0x1314 <_ZN9OrangeBot5Servo19compute_servo_delayEhRj+0x136>
    12fa:	60 f0       	brcs	.+24     	; 0x1314 <_ZN9OrangeBot5Servo19compute_servo_delayEhRj+0x136>
			{
				this -> report_error( Error_code::ERR_OVERFLOW, __LINE__ );
    12fc:	48 ee       	ldi	r20, 0xE8	; 232
    12fe:	56 e0       	ldi	r21, 0x06	; 6
    1300:	66 e0       	ldi	r22, 0x06	; 6
    1302:	ce 01       	movw	r24, r28
    1304:	0e 94 c9 06 	call	0xd92	; 0xd92 <_ZN9OrangeBot5Servo12report_errorENS0_11_Error_codeEj>
				ou16_delay = Config::HAL_TIMER_MAX_CNT;
    1308:	8f ef       	ldi	r24, 0xFF	; 255
    130a:	9f ef       	ldi	r25, 0xFF	; 255
    130c:	f8 01       	movw	r30, r16
    130e:	80 83       	st	Z, r24
    1310:	91 83       	std	Z+1, r25	; 0x01
				return true;
    1312:	17 c1       	rjmp	.+558    	; 0x1542 <_ZN9OrangeBot5Servo19compute_servo_delayEhRj+0x364>
			}
			u8_speed = u16_tmp;
    1314:	68 2f       	mov	r22, r24
			//Update internal timer status
			gast_timer[iu8_index].u8_speed = u8_speed;
    1316:	fa 01       	movw	r30, r20
    1318:	ee 0f       	add	r30, r30
    131a:	ff 1f       	adc	r31, r31
    131c:	ee 0f       	add	r30, r30
    131e:	ff 1f       	adc	r31, r31
    1320:	e4 0f       	add	r30, r20
    1322:	f5 1f       	adc	r31, r21
    1324:	ec 0f       	add	r30, r28
    1326:	fd 1f       	adc	r31, r29
    1328:	ed 5b       	subi	r30, 0xBD	; 189
    132a:	ff 4f       	sbci	r31, 0xFF	; 255
    132c:	80 83       	st	Z, r24
		}
		//status and command are synced
		gast_command[iu8_index].u1_speed_changed = false;
    132e:	fa 01       	movw	r30, r20
    1330:	ee 0f       	add	r30, r30
    1332:	ff 1f       	adc	r31, r31
    1334:	ee 0f       	add	r30, r30
    1336:	ff 1f       	adc	r31, r31
    1338:	ee 0f       	add	r30, r30
    133a:	ff 1f       	adc	r31, r31
    133c:	ec 0f       	add	r30, r28
    133e:	fd 1f       	adc	r31, r29
    1340:	16 82       	std	Z+6, r1	; 0x06
    1342:	0c c0       	rjmp	.+24     	; 0x135c <_ZN9OrangeBot5Servo19compute_servo_delayEhRj+0x17e>
	}
	//If speed has not changed
	else
	{
		//Fetch speed
		u8_speed = gast_timer[iu8_index].u8_speed;
    1344:	fa 01       	movw	r30, r20
    1346:	ee 0f       	add	r30, r30
    1348:	ff 1f       	adc	r31, r31
    134a:	ee 0f       	add	r30, r30
    134c:	ff 1f       	adc	r31, r31
    134e:	e4 0f       	add	r30, r20
    1350:	f5 1f       	adc	r31, r21
    1352:	ec 0f       	add	r30, r28
    1354:	fd 1f       	adc	r31, r29
    1356:	ed 5b       	subi	r30, 0xBD	; 189
    1358:	ff 4f       	sbci	r31, 0xFF	; 255
    135a:	60 81       	ld	r22, Z
	///--------------------------------------------------------------------------

	//Initialize return delay to invalid
	uint16_t u16_delay = Config::HAL_TIMER_MAX_CNT;
	//Fetch target
	uint16_t u16_target = gast_timer[iu8_index].u16_target;
    135c:	ca 01       	movw	r24, r20
    135e:	88 0f       	add	r24, r24
    1360:	99 1f       	adc	r25, r25
    1362:	88 0f       	add	r24, r24
    1364:	99 1f       	adc	r25, r25
    1366:	84 0f       	add	r24, r20
    1368:	95 1f       	adc	r25, r21
    136a:	8c 0f       	add	r24, r28
    136c:	9d 1f       	adc	r25, r29
    136e:	fc 01       	movw	r30, r24
    1370:	ef 5b       	subi	r30, 0xBF	; 191
    1372:	ff 4f       	sbci	r31, 0xFF	; 255
    1374:	20 81       	ld	r18, Z
    1376:	31 81       	ldd	r19, Z+1	; 0x01
	//Fetch actual
	uint16_t u16_actual = gast_timer[iu8_index].u16_actual;
    1378:	33 96       	adiw	r30, 0x03	; 3
    137a:	80 81       	ld	r24, Z
    137c:	91 81       	ldd	r25, Z+1	; 0x01
	//If: speed limit is inactive
	if (u8_speed == 0)
    137e:	61 11       	cpse	r22, r1
    1380:	3d c0       	rjmp	.+122    	; 0x13fc <_ZN9OrangeBot5Servo19compute_servo_delayEhRj+0x21e>
	{
		//if already locked
		if (u16_target == u16_actual)
    1382:	28 17       	cp	r18, r24
    1384:	39 07       	cpc	r19, r25
    1386:	b9 f4       	brne	.+46     	; 0x13b6 <_ZN9OrangeBot5Servo19compute_servo_delayEhRj+0x1d8>
		{
			//Already locked
			gast_command[iu8_index].u1_idle = true;
    1388:	fa 01       	movw	r30, r20
    138a:	31 96       	adiw	r30, 0x01	; 1
    138c:	ee 0f       	add	r30, r30
    138e:	ff 1f       	adc	r31, r31
    1390:	ee 0f       	add	r30, r30
    1392:	ff 1f       	adc	r31, r31
    1394:	ee 0f       	add	r30, r30
    1396:	ff 1f       	adc	r31, r31
    1398:	ec 0f       	add	r30, r28
    139a:	fd 1f       	adc	r31, r29
    139c:	81 e0       	ldi	r24, 0x01	; 1
    139e:	80 83       	st	Z, r24
			gast_command[iu8_index].u1_lock = true;	
    13a0:	44 0f       	add	r20, r20
    13a2:	55 1f       	adc	r21, r21
    13a4:	44 0f       	add	r20, r20
    13a6:	55 1f       	adc	r21, r21
    13a8:	44 0f       	add	r20, r20
    13aa:	55 1f       	adc	r21, r21
    13ac:	fe 01       	movw	r30, r28
    13ae:	e4 0f       	add	r30, r20
    13b0:	f5 1f       	adc	r31, r21
    13b2:	87 83       	std	Z+7, r24	; 0x07
    13b4:	ae c0       	rjmp	.+348    	; 0x1512 <_ZN9OrangeBot5Servo19compute_servo_delayEhRj+0x334>
		}
		//Needs to move
		else
		{
			//Not locked
			gast_command[iu8_index].u1_idle = false;
    13b6:	fa 01       	movw	r30, r20
    13b8:	31 96       	adiw	r30, 0x01	; 1
    13ba:	ee 0f       	add	r30, r30
    13bc:	ff 1f       	adc	r31, r31
    13be:	ee 0f       	add	r30, r30
    13c0:	ff 1f       	adc	r31, r31
    13c2:	ee 0f       	add	r30, r30
    13c4:	ff 1f       	adc	r31, r31
    13c6:	ec 0f       	add	r30, r28
    13c8:	fd 1f       	adc	r31, r29
    13ca:	10 82       	st	Z, r1
			gast_command[iu8_index].u1_lock = false;
    13cc:	fa 01       	movw	r30, r20
    13ce:	ee 0f       	add	r30, r30
    13d0:	ff 1f       	adc	r31, r31
    13d2:	ee 0f       	add	r30, r30
    13d4:	ff 1f       	adc	r31, r31
    13d6:	ee 0f       	add	r30, r30
    13d8:	ff 1f       	adc	r31, r31
    13da:	ec 0f       	add	r30, r28
    13dc:	fd 1f       	adc	r31, r29
    13de:	17 82       	std	Z+7, r1	; 0x07
			//Update actual
			gast_timer[iu8_index].u16_actual = u16_target;
    13e0:	fa 01       	movw	r30, r20
    13e2:	ee 0f       	add	r30, r30
    13e4:	ff 1f       	adc	r31, r31
    13e6:	ee 0f       	add	r30, r30
    13e8:	ff 1f       	adc	r31, r31
    13ea:	e4 0f       	add	r30, r20
    13ec:	f5 1f       	adc	r31, r21
    13ee:	ec 0f       	add	r30, r28
    13f0:	fd 1f       	adc	r31, r29
    13f2:	ec 5b       	subi	r30, 0xBC	; 188
    13f4:	ff 4f       	sbci	r31, 0xFF	; 255
    13f6:	20 83       	st	Z, r18
    13f8:	31 83       	std	Z+1, r19	; 0x01
    13fa:	8b c0       	rjmp	.+278    	; 0x1512 <_ZN9OrangeBot5Servo19compute_servo_delayEhRj+0x334>
	}
	//if: speed limit active
	else
	{
		//if already locked
		if (u16_target == u16_actual)
    13fc:	28 17       	cp	r18, r24
    13fe:	39 07       	cpc	r19, r25
    1400:	c1 f4       	brne	.+48     	; 0x1432 <_ZN9OrangeBot5Servo19compute_servo_delayEhRj+0x254>
		{
			//Already locked
			gast_command[iu8_index].u1_idle = true;
    1402:	fa 01       	movw	r30, r20
    1404:	31 96       	adiw	r30, 0x01	; 1
    1406:	ee 0f       	add	r30, r30
    1408:	ff 1f       	adc	r31, r31
    140a:	ee 0f       	add	r30, r30
    140c:	ff 1f       	adc	r31, r31
    140e:	ee 0f       	add	r30, r30
    1410:	ff 1f       	adc	r31, r31
    1412:	ec 0f       	add	r30, r28
    1414:	fd 1f       	adc	r31, r29
    1416:	21 e0       	ldi	r18, 0x01	; 1
    1418:	20 83       	st	Z, r18
			gast_command[iu8_index].u1_lock = true;
    141a:	44 0f       	add	r20, r20
    141c:	55 1f       	adc	r21, r21
    141e:	44 0f       	add	r20, r20
    1420:	55 1f       	adc	r21, r21
    1422:	44 0f       	add	r20, r20
    1424:	55 1f       	adc	r21, r21
    1426:	fe 01       	movw	r30, r28
    1428:	e4 0f       	add	r30, r20
    142a:	f5 1f       	adc	r31, r21
    142c:	27 83       	std	Z+7, r18	; 0x07
			//Delay of the servo to be returned to caller
			u16_delay = u16_actual;
    142e:	9c 01       	movw	r18, r24
    1430:	70 c0       	rjmp	.+224    	; 0x1512 <_ZN9OrangeBot5Servo19compute_servo_delayEhRj+0x334>
		}
		//if: Needs to move
		else
		{
			//Compute absolute difference
			uint16_t u16_delta = ((u16_target > u16_actual)?(u16_target-u16_actual):(u16_actual-u16_target));
    1432:	82 17       	cp	r24, r18
    1434:	93 07       	cpc	r25, r19
    1436:	20 f4       	brcc	.+8      	; 0x1440 <_ZN9OrangeBot5Servo19compute_servo_delayEhRj+0x262>
    1438:	f9 01       	movw	r30, r18
    143a:	e8 1b       	sub	r30, r24
    143c:	f9 0b       	sbc	r31, r25
    143e:	03 c0       	rjmp	.+6      	; 0x1446 <_ZN9OrangeBot5Servo19compute_servo_delayEhRj+0x268>
    1440:	fc 01       	movw	r30, r24
    1442:	e2 1b       	sub	r30, r18
    1444:	f3 0b       	sbc	r31, r19
			//If: I need to move less than my allowed speed limit
			if (u16_delta < u8_speed)
    1446:	70 e0       	ldi	r23, 0x00	; 0
    1448:	e6 17       	cp	r30, r22
    144a:	f7 07       	cpc	r31, r23
    144c:	20 f5       	brcc	.+72     	; 0x1496 <_ZN9OrangeBot5Servo19compute_servo_delayEhRj+0x2b8>
			{
				//I'm locked but not IDLE
				gast_command[iu8_index].u1_lock = true;
    144e:	fa 01       	movw	r30, r20
    1450:	ee 0f       	add	r30, r30
    1452:	ff 1f       	adc	r31, r31
    1454:	ee 0f       	add	r30, r30
    1456:	ff 1f       	adc	r31, r31
    1458:	ee 0f       	add	r30, r30
    145a:	ff 1f       	adc	r31, r31
    145c:	ec 0f       	add	r30, r28
    145e:	fd 1f       	adc	r31, r29
    1460:	81 e0       	ldi	r24, 0x01	; 1
    1462:	87 83       	std	Z+7, r24	; 0x07
				gast_command[iu8_index].u1_idle = false;
    1464:	fa 01       	movw	r30, r20
    1466:	31 96       	adiw	r30, 0x01	; 1
    1468:	ee 0f       	add	r30, r30
    146a:	ff 1f       	adc	r31, r31
    146c:	ee 0f       	add	r30, r30
    146e:	ff 1f       	adc	r31, r31
    1470:	ee 0f       	add	r30, r30
    1472:	ff 1f       	adc	r31, r31
    1474:	ec 0f       	add	r30, r28
    1476:	fd 1f       	adc	r31, r29
    1478:	10 82       	st	Z, r1
				//Update actual
				gast_timer[iu8_index].u16_actual = u16_target;
    147a:	fa 01       	movw	r30, r20
    147c:	ee 0f       	add	r30, r30
    147e:	ff 1f       	adc	r31, r31
    1480:	ee 0f       	add	r30, r30
    1482:	ff 1f       	adc	r31, r31
    1484:	e4 0f       	add	r30, r20
    1486:	f5 1f       	adc	r31, r21
    1488:	ec 0f       	add	r30, r28
    148a:	fd 1f       	adc	r31, r29
    148c:	ec 5b       	subi	r30, 0xBC	; 188
    148e:	ff 4f       	sbci	r31, 0xFF	; 255
    1490:	20 83       	st	Z, r18
    1492:	31 83       	std	Z+1, r19	; 0x01
    1494:	3e c0       	rjmp	.+124    	; 0x1512 <_ZN9OrangeBot5Servo19compute_servo_delayEhRj+0x334>
			}
			//if: I need to move more than the speed limit
			else
			{
				//I'm moving in a speed limited way
				gast_command[iu8_index].u1_lock = false;
    1496:	fa 01       	movw	r30, r20
    1498:	ee 0f       	add	r30, r30
    149a:	ff 1f       	adc	r31, r31
    149c:	ee 0f       	add	r30, r30
    149e:	ff 1f       	adc	r31, r31
    14a0:	ee 0f       	add	r30, r30
    14a2:	ff 1f       	adc	r31, r31
    14a4:	ec 0f       	add	r30, r28
    14a6:	fd 1f       	adc	r31, r29
    14a8:	17 82       	std	Z+7, r1	; 0x07
				gast_command[iu8_index].u1_idle = false;
    14aa:	fa 01       	movw	r30, r20
    14ac:	31 96       	adiw	r30, 0x01	; 1
    14ae:	ee 0f       	add	r30, r30
    14b0:	ff 1f       	adc	r31, r31
    14b2:	ee 0f       	add	r30, r30
    14b4:	ff 1f       	adc	r31, r31
    14b6:	ee 0f       	add	r30, r30
    14b8:	ff 1f       	adc	r31, r31
    14ba:	ec 0f       	add	r30, r28
    14bc:	fd 1f       	adc	r31, r29
    14be:	10 82       	st	Z, r1
				//If: moving positive
				if (u16_target > u16_actual)
    14c0:	82 17       	cp	r24, r18
    14c2:	93 07       	cpc	r25, r19
    14c4:	20 f4       	brcc	.+8      	; 0x14ce <_ZN9OrangeBot5Servo19compute_servo_delayEhRj+0x2f0>
				{
					//Move the maximum allowed speed in the positive direction	
					u16_actual += u8_speed;
    14c6:	9c 01       	movw	r18, r24
    14c8:	26 0f       	add	r18, r22
    14ca:	37 1f       	adc	r19, r23
    14cc:	15 c0       	rjmp	.+42     	; 0x14f8 <_ZN9OrangeBot5Servo19compute_servo_delayEhRj+0x31a>
					
				}
				//If: moving negative
				else if (u16_target < u16_actual)
    14ce:	28 17       	cp	r18, r24
    14d0:	39 07       	cpc	r19, r25
    14d2:	20 f4       	brcc	.+8      	; 0x14dc <_ZN9OrangeBot5Servo19compute_servo_delayEhRj+0x2fe>
				{
					//Move the maximum allowed speed in the positive direction
					u16_actual -= u8_speed;
    14d4:	9c 01       	movw	r18, r24
    14d6:	26 1b       	sub	r18, r22
    14d8:	37 0b       	sbc	r19, r23
    14da:	0e c0       	rjmp	.+28     	; 0x14f8 <_ZN9OrangeBot5Servo19compute_servo_delayEhRj+0x31a>
				}
				else
				{
					this -> report_error( Error_code::ERR_ALGORITHM, __LINE__ );
    14dc:	4b e4       	ldi	r20, 0x4B	; 75
    14de:	57 e0       	ldi	r21, 0x07	; 7
    14e0:	68 e0       	ldi	r22, 0x08	; 8
    14e2:	ce 01       	movw	r24, r28
    14e4:	0e 94 c9 06 	call	0xd92	; 0xd92 <_ZN9OrangeBot5Servo12report_errorENS0_11_Error_codeEj>
					ou16_delay = Config::HAL_TIMER_MAX_CNT;
    14e8:	8f ef       	ldi	r24, 0xFF	; 255
    14ea:	9f ef       	ldi	r25, 0xFF	; 255
    14ec:	f8 01       	movw	r30, r16
    14ee:	80 83       	st	Z, r24
    14f0:	91 83       	std	Z+1, r25	; 0x01
					return true;
    14f2:	ff 24       	eor	r15, r15
    14f4:	f3 94       	inc	r15
    14f6:	25 c0       	rjmp	.+74     	; 0x1542 <_ZN9OrangeBot5Servo19compute_servo_delayEhRj+0x364>
				}
				//Update actual
				gast_timer[iu8_index].u16_actual = u16_actual;
    14f8:	fa 01       	movw	r30, r20
    14fa:	ee 0f       	add	r30, r30
    14fc:	ff 1f       	adc	r31, r31
    14fe:	ee 0f       	add	r30, r30
    1500:	ff 1f       	adc	r31, r31
    1502:	e4 0f       	add	r30, r20
    1504:	f5 1f       	adc	r31, r21
    1506:	ec 0f       	add	r30, r28
    1508:	fd 1f       	adc	r31, r29
    150a:	ec 5b       	subi	r30, 0xBC	; 188
    150c:	ff 4f       	sbci	r31, 0xFF	; 255
    150e:	20 83       	st	Z, r18
    1510:	31 83       	std	Z+1, r19	; 0x01
				//Delay of the servo to be returned to caller
				u16_delay = u16_actual;
			} //end if: I need to move more than the speed limit
		}  //end if: Needs to move
	} //end if: speed limit active
	if ((Config::PEDANTIC_CHECKS == true) && ((u16_delay < Config::SERVO_PPM_MIN_PULSE) || (u16_delay> Config::SERVO_PPM_MAX_PULSE)) )
    1512:	c9 01       	movw	r24, r18
    1514:	8c 54       	subi	r24, 0x4C	; 76
    1516:	94 40       	sbci	r25, 0x04	; 4
    1518:	81 32       	cpi	r24, 0x21	; 33
    151a:	93 40       	sbci	r25, 0x03	; 3
    151c:	70 f0       	brcs	.+28     	; 0x153a <_ZN9OrangeBot5Servo19compute_servo_delayEhRj+0x35c>
	{
		this -> report_error( Error_code::ERR_ALGORITHM, __LINE__  );
    151e:	48 e5       	ldi	r20, 0x58	; 88
    1520:	57 e0       	ldi	r21, 0x07	; 7
    1522:	68 e0       	ldi	r22, 0x08	; 8
    1524:	ce 01       	movw	r24, r28
    1526:	0e 94 c9 06 	call	0xd92	; 0xd92 <_ZN9OrangeBot5Servo12report_errorENS0_11_Error_codeEj>
		ou16_delay = Config::HAL_TIMER_MAX_CNT;
    152a:	8f ef       	ldi	r24, 0xFF	; 255
    152c:	9f ef       	ldi	r25, 0xFF	; 255
    152e:	f8 01       	movw	r30, r16
    1530:	80 83       	st	Z, r24
    1532:	91 83       	std	Z+1, r25	; 0x01
		return true;
    1534:	ff 24       	eor	r15, r15
    1536:	f3 94       	inc	r15
    1538:	04 c0       	rjmp	.+8      	; 0x1542 <_ZN9OrangeBot5Servo19compute_servo_delayEhRj+0x364>

	///--------------------------------------------------------------------------
	///	RETURN
	///--------------------------------------------------------------------------
	DRETURN_ARG("Delay %d\n", u16_delay); //Trace Return
	ou16_delay = u16_delay;
    153a:	f8 01       	movw	r30, r16
    153c:	20 83       	st	Z, r18
    153e:	31 83       	std	Z+1, r19	; 0x01
	return false;	//OK
    1540:	f1 2c       	mov	r15, r1
}   //end private method: compute_servo_delay | uint8_t | uint16_t |
    1542:	8f 2d       	mov	r24, r15
    1544:	df 91       	pop	r29
    1546:	cf 91       	pop	r28
    1548:	1f 91       	pop	r17
    154a:	0f 91       	pop	r16
    154c:	ff 90       	pop	r15
    154e:	08 95       	ret

00001550 <_ZN9OrangeBot5Servo13hal_timer_isrEv>:
//! \n Toggles the servo pin and compute the next OCR
//! \n Re-arms or Stop the timer
/***************************************************************************/

bool Servo::hal_timer_isr( void )
{
    1550:	cf 92       	push	r12
    1552:	df 92       	push	r13
    1554:	ef 92       	push	r14
    1556:	ff 92       	push	r15
    1558:	0f 93       	push	r16
    155a:	1f 93       	push	r17
    155c:	cf 93       	push	r28
    155e:	df 93       	push	r29
    1560:	00 d0       	rcall	.+0      	; 0x1562 <_ZN9OrangeBot5Servo13hal_timer_isrEv+0x12>
    1562:	cd b7       	in	r28, 0x3d	; 61
    1564:	de b7       	in	r29, 0x3e	; 62
    1566:	7c 01       	movw	r14, r24
	///	SERVO IOs
	///--------------------------------------------------------------------------
	//	Emit the correct IO lines

	//Fetch scan index
	uint8_t u8_index = this -> gu8_index;
    1568:	fc 01       	movw	r30, r24
    156a:	10 81       	ld	r17, Z
	//First Servo: SET servo line
	if (u8_index == 0)
    156c:	11 11       	cpse	r17, r1
    156e:	05 c0       	rjmp	.+10     	; 0x157a <_ZN9OrangeBot5Servo13hal_timer_isrEv+0x2a>
	{
		u1_ret = this -> hal_servo_io( u8_index, true );
    1570:	41 e0       	ldi	r20, 0x01	; 1
    1572:	61 2f       	mov	r22, r17
    1574:	0e 94 86 07 	call	0xf0c	; 0xf0c <_ZN9OrangeBot5Servo12hal_servo_ioEhb>
    1578:	16 c0       	rjmp	.+44     	; 0x15a6 <_ZN9OrangeBot5Servo13hal_timer_isrEv+0x56>
	}
	//Inner servos
	else if ((u8_index > 0) && (u8_index < Config::NUM_SERVOS))
    157a:	6f ef       	ldi	r22, 0xFF	; 255
    157c:	61 0f       	add	r22, r17
    157e:	67 30       	cpi	r22, 0x07	; 7
    1580:	58 f4       	brcc	.+22     	; 0x1598 <_ZN9OrangeBot5Servo13hal_timer_isrEv+0x48>
	{
		//Clear previous servo line
		u1_ret = this -> hal_servo_io( u8_index-1, false );
    1582:	40 e0       	ldi	r20, 0x00	; 0
    1584:	0e 94 86 07 	call	0xf0c	; 0xf0c <_ZN9OrangeBot5Servo12hal_servo_ioEhb>
    1588:	08 2f       	mov	r16, r24
		//SET current servo line
		u1_ret |= this -> hal_servo_io( u8_index, true );
    158a:	41 e0       	ldi	r20, 0x01	; 1
    158c:	61 2f       	mov	r22, r17
    158e:	c7 01       	movw	r24, r14
    1590:	0e 94 86 07 	call	0xf0c	; 0xf0c <_ZN9OrangeBot5Servo12hal_servo_ioEhb>
    1594:	80 2b       	or	r24, r16
    1596:	07 c0       	rjmp	.+14     	; 0x15a6 <_ZN9OrangeBot5Servo13hal_timer_isrEv+0x56>
	}
	//Last Servo: CLEAR servo line
	else if (u8_index == Config::NUM_SERVOS)
    1598:	18 30       	cpi	r17, 0x08	; 8
    159a:	21 f4       	brne	.+8      	; 0x15a4 <_ZN9OrangeBot5Servo13hal_timer_isrEv+0x54>
	{
		//Clear previous servo line
		u1_ret = this -> hal_servo_io( u8_index -1, false );
    159c:	40 e0       	ldi	r20, 0x00	; 0
    159e:	0e 94 86 07 	call	0xf0c	; 0xf0c <_ZN9OrangeBot5Servo12hal_servo_ioEhb>
    15a2:	01 c0       	rjmp	.+2      	; 0x15a6 <_ZN9OrangeBot5Servo13hal_timer_isrEv+0x56>
	}
	//Algorithmic Error
	else
	{
		//FAIL
		u1_ret = true;
    15a4:	81 e0       	ldi	r24, 0x01	; 1
	}
	
	//If Fail
	if (u1_ret == true)
    15a6:	88 23       	and	r24, r24
    15a8:	21 f0       	breq	.+8      	; 0x15b2 <_ZN9OrangeBot5Servo13hal_timer_isrEv+0x62>
	{
		//SCRAM!!!
		u1_ret = this -> emergency_stop();
    15aa:	c7 01       	movw	r24, r14
    15ac:	0e 94 db 08 	call	0x11b6	; 0x11b6 <_ZN9OrangeBot5Servo14emergency_stopEv>
		return u1_ret;
    15b0:	58 c0       	rjmp	.+176    	; 0x1662 <_ZN9OrangeBot5Servo13hal_timer_isrEv+0x112>
	//	Compute and program the delay for the next cycle
	
	//Temp delay in microseconds. HAL takes care of programming a delay in timer units
	uint16_t u16_delay;
	//Latch accumulator
	uint16_t u16_accumulator = gu16_timer_sum;
    15b2:	f7 01       	movw	r30, r14
    15b4:	e7 59       	subi	r30, 0x97	; 151
    15b6:	ff 4f       	sbci	r31, 0xFF	; 255
    15b8:	c0 80       	ld	r12, Z
    15ba:	d1 80       	ldd	r13, Z+1	; 0x01
	//Compute Delay for servos
	if (u8_index < Config::NUM_SERVOS)
    15bc:	18 30       	cpi	r17, 0x08	; 8
    15be:	d0 f4       	brcc	.+52     	; 0x15f4 <_ZN9OrangeBot5Servo13hal_timer_isrEv+0xa4>
	{
		//Driver takes care of updating from user command, maintaining servo status and computing what the next delay is to be
		u1_ret = this -> compute_servo_delay( u8_index, u16_delay );
    15c0:	ae 01       	movw	r20, r28
    15c2:	4f 5f       	subi	r20, 0xFF	; 255
    15c4:	5f 4f       	sbci	r21, 0xFF	; 255
    15c6:	61 2f       	mov	r22, r17
    15c8:	c7 01       	movw	r24, r14
    15ca:	0e 94 ef 08 	call	0x11de	; 0x11de <_ZN9OrangeBot5Servo19compute_servo_delayEhRj>
		if ((Config::PEDANTIC_CHECKS == true) && ((u16_delay < Config::SERVO_PPM_MIN_PULSE) || (u16_delay > Config::SERVO_PPM_MAX_PULSE)) )
    15ce:	29 81       	ldd	r18, Y+1	; 0x01
    15d0:	3a 81       	ldd	r19, Y+2	; 0x02
    15d2:	a9 01       	movw	r20, r18
    15d4:	4c 54       	subi	r20, 0x4C	; 76
    15d6:	54 40       	sbci	r21, 0x04	; 4
    15d8:	41 32       	cpi	r20, 0x21	; 33
    15da:	53 40       	sbci	r21, 0x03	; 3
    15dc:	40 f0       	brcs	.+16     	; 0x15ee <_ZN9OrangeBot5Servo13hal_timer_isrEv+0x9e>
		{
			this -> report_error( Error_code::ERR_ALGORITHM, __LINE__  );
    15de:	40 e9       	ldi	r20, 0x90	; 144
    15e0:	53 e0       	ldi	r21, 0x03	; 3
    15e2:	68 e0       	ldi	r22, 0x08	; 8
    15e4:	c7 01       	movw	r24, r14
    15e6:	0e 94 c9 06 	call	0xd92	; 0xd92 <_ZN9OrangeBot5Servo12report_errorENS0_11_Error_codeEj>
			return true;
    15ea:	81 e0       	ldi	r24, 0x01	; 1
    15ec:	3a c0       	rjmp	.+116    	; 0x1662 <_ZN9OrangeBot5Servo13hal_timer_isrEv+0x112>
		}
		//Accumulate delay inside accumulator
		u16_accumulator += u16_delay;
    15ee:	c2 0e       	add	r12, r18
    15f0:	d3 1e       	adc	r13, r19
    15f2:	19 c0       	rjmp	.+50     	; 0x1626 <_ZN9OrangeBot5Servo13hal_timer_isrEv+0xd6>
	}
	//Compute final delay and clear accumulator
	else if (u8_index == Config::NUM_SERVOS)
    15f4:	18 30       	cpi	r17, 0x08	; 8
    15f6:	b1 f4       	brne	.+44     	; 0x1624 <_ZN9OrangeBot5Servo13hal_timer_isrEv+0xd4>
	{
		//If: the servo scan time exceed the PPM period
		if (u16_accumulator >= Config::SERVO_PPM_PERIOD)
    15f8:	90 e2       	ldi	r25, 0x20	; 32
    15fa:	c9 16       	cp	r12, r25
    15fc:	9e e4       	ldi	r25, 0x4E	; 78
    15fe:	d9 06       	cpc	r13, r25
    1600:	40 f0       	brcs	.+16     	; 0x1612 <_ZN9OrangeBot5Servo13hal_timer_isrEv+0xc2>
		{
			this -> report_error( Error_code::ERR_ALGORITHM, __LINE__  );
    1602:	4c e9       	ldi	r20, 0x9C	; 156
    1604:	53 e0       	ldi	r21, 0x03	; 3
    1606:	68 e0       	ldi	r22, 0x08	; 8
    1608:	c7 01       	movw	r24, r14
    160a:	0e 94 c9 06 	call	0xd92	; 0xd92 <_ZN9OrangeBot5Servo12report_errorENS0_11_Error_codeEj>
			u1_ret = true;
    160e:	81 e0       	ldi	r24, 0x01	; 1
    1610:	0a c0       	rjmp	.+20     	; 0x1626 <_ZN9OrangeBot5Servo13hal_timer_isrEv+0xd6>
		}
		//If: scan time is good
		else
		{
			//Final delay is meant to achieve the PPM period
			u16_delay = Config::SERVO_PPM_PERIOD -u16_accumulator;
    1612:	20 e2       	ldi	r18, 0x20	; 32
    1614:	3e e4       	ldi	r19, 0x4E	; 78
    1616:	2c 19       	sub	r18, r12
    1618:	3d 09       	sbc	r19, r13
    161a:	29 83       	std	Y+1, r18	; 0x01
    161c:	3a 83       	std	Y+2, r19	; 0x02
			//Reset the accumulator for the next cycle
			u16_accumulator = 0;	
    161e:	c1 2c       	mov	r12, r1
    1620:	d1 2c       	mov	r13, r1
    1622:	01 c0       	rjmp	.+2      	; 0x1626 <_ZN9OrangeBot5Servo13hal_timer_isrEv+0xd6>
	}
	//Algorithmic error
	else
	{
		//Fail
		u1_ret = true;	
    1624:	81 e0       	ldi	r24, 0x01	; 1
	}
	//If fail
	if (u1_ret == true)
    1626:	88 23       	and	r24, r24
    1628:	21 f0       	breq	.+8      	; 0x1632 <_ZN9OrangeBot5Servo13hal_timer_isrEv+0xe2>
	{
		//SCRAM!!!
		u1_ret = this -> emergency_stop();
    162a:	c7 01       	movw	r24, r14
    162c:	0e 94 db 08 	call	0x11b6	; 0x11b6 <_ZN9OrangeBot5Servo14emergency_stopEv>
		return u1_ret;
    1630:	18 c0       	rjmp	.+48     	; 0x1662 <_ZN9OrangeBot5Servo13hal_timer_isrEv+0x112>
	}
	
	//Program the timer with the desired delay. ISR will be called again when said delay has elapsed
	u1_ret = this -> hal_timer_set_delay( u16_delay );
    1632:	69 81       	ldd	r22, Y+1	; 0x01
    1634:	7a 81       	ldd	r23, Y+2	; 0x02
    1636:	c7 01       	movw	r24, r14
    1638:	0e 94 1b 08 	call	0x1036	; 0x1036 <_ZN9OrangeBot5Servo19hal_timer_set_delayEj>
	//Fail
	if (u1_ret == true)
    163c:	88 23       	and	r24, r24
    163e:	21 f0       	breq	.+8      	; 0x1648 <_ZN9OrangeBot5Servo13hal_timer_isrEv+0xf8>
	{
		//SCRAM!!!
		u1_ret = this -> emergency_stop();
    1640:	c7 01       	movw	r24, r14
    1642:	0e 94 db 08 	call	0x11b6	; 0x11b6 <_ZN9OrangeBot5Servo14emergency_stopEv>
		return u1_ret;
    1646:	0d c0       	rjmp	.+26     	; 0x1662 <_ZN9OrangeBot5Servo13hal_timer_isrEv+0x112>
	}
	//Success
	else
	{
		//Write back accumulator
		gu16_timer_sum = u16_accumulator;
    1648:	f7 01       	movw	r30, r14
    164a:	e7 59       	subi	r30, 0x97	; 151
    164c:	ff 4f       	sbci	r31, 0xFF	; 255
    164e:	c0 82       	st	Z, r12
    1650:	d1 82       	std	Z+1, r13	; 0x01
	}
	//Next scan. TOP is the last number counted before reset
	u8_index = AT_TOP_INC( u8_index, Config::NUM_SERVOS );
    1652:	18 30       	cpi	r17, 0x08	; 8
    1654:	11 f0       	breq	.+4      	; 0x165a <_ZN9OrangeBot5Servo13hal_timer_isrEv+0x10a>
    1656:	1f 5f       	subi	r17, 0xFF	; 255
    1658:	01 c0       	rjmp	.+2      	; 0x165c <_ZN9OrangeBot5Servo13hal_timer_isrEv+0x10c>
    165a:	10 e0       	ldi	r17, 0x00	; 0
	//Update the scan index
	this -> gu8_index = u8_index;
    165c:	f7 01       	movw	r30, r14
    165e:	10 83       	st	Z, r17

	///--------------------------------------------------------------------------
	///	RETURN
	///--------------------------------------------------------------------------
	
	return false;	//OK
    1660:	80 e0       	ldi	r24, 0x00	; 0
}   //end public method: hal_timer_isr
    1662:	0f 90       	pop	r0
    1664:	0f 90       	pop	r0
    1666:	df 91       	pop	r29
    1668:	cf 91       	pop	r28
    166a:	1f 91       	pop	r17
    166c:	0f 91       	pop	r16
    166e:	ff 90       	pop	r15
    1670:	ef 90       	pop	r14
    1672:	df 90       	pop	r13
    1674:	cf 90       	pop	r12
    1676:	08 95       	ret

00001678 <_ZN4User4UartD1Ev>:
//! @return no return
//!	@details
//! Empty destructor
/***************************************************************************/

Uart::~Uart( void )
    1678:	08 95       	ret

0000167a <_ZN4User4Uart4sendEh>:
//!	@details
//! \n	Load a data inside the UART TX buffer
/***************************************************************************/

bool Uart::send( uint8_t iu8_data )
{
    167a:	fc 01       	movw	r30, r24
	///--------------------------------------------------------------------------
	///	BODY
	///--------------------------------------------------------------------------

	//UART DEMO
	AT_BUF_PUSH( this -> rpi_tx_buf, 'Z' );
    167c:	a6 85       	ldd	r26, Z+14	; 0x0e
    167e:	b7 85       	ldd	r27, Z+15	; 0x0f
    1680:	85 85       	ldd	r24, Z+13	; 0x0d
    1682:	a8 0f       	add	r26, r24
    1684:	b1 1d       	adc	r27, r1
    1686:	8a e5       	ldi	r24, 0x5A	; 90
    1688:	8c 93       	st	X, r24
    168a:	25 85       	ldd	r18, Z+13	; 0x0d
    168c:	42 2f       	mov	r20, r18
    168e:	50 e0       	ldi	r21, 0x00	; 0
    1690:	83 85       	ldd	r24, Z+11	; 0x0b
    1692:	90 e0       	ldi	r25, 0x00	; 0
    1694:	01 97       	sbiw	r24, 0x01	; 1
    1696:	48 17       	cp	r20, r24
    1698:	59 07       	cpc	r21, r25
    169a:	1c f4       	brge	.+6      	; 0x16a2 <_ZN4User4Uart4sendEh+0x28>
    169c:	2f 5f       	subi	r18, 0xFF	; 255
    169e:	25 87       	std	Z+13, r18	; 0x0d
    16a0:	01 c0       	rjmp	.+2      	; 0x16a4 <_ZN4User4Uart4sendEh+0x2a>
    16a2:	15 86       	std	Z+13, r1	; 0x0d
	///--------------------------------------------------------------------------
	///	RETURN
	///--------------------------------------------------------------------------
	DRETURN();	//Trace return
	return false;	//OK
}	//end public setter: send | uint8_t |
    16a4:	80 e0       	ldi	r24, 0x00	; 0
    16a6:	08 95       	ret

000016a8 <_ZN4User4Uart10isr_rx_exeEv>:
//!	@details
//! Method
/***************************************************************************/

bool Uart::isr_rx_exe( void )
{
    16a8:	fc 01       	movw	r30, r24
	///--------------------------------------------------------------------------
	///	BODY
	///--------------------------------------------------------------------------

	//Fetch the data and clear the interrupt flag
	uint8_t rx_data_tmp = USART0.RXDATAL;
    16aa:	60 91 00 08 	lds	r22, 0x0800	; 0x800800 <__TEXT_REGION_LENGTH__+0x7f4800>
	//If: RX buffer overflow
	if (AT_BUF_NUMELEM( this -> rpi_rx_buf )>=(Config::RX_BUFFER_SIZE-1))
    16ae:	87 81       	ldd	r24, Z+7	; 0x07
    16b0:	96 81       	ldd	r25, Z+6	; 0x06
    16b2:	89 17       	cp	r24, r25
    16b4:	50 f0       	brcs	.+20     	; 0x16ca <_ZN4User4Uart10isr_rx_exeEv+0x22>
    16b6:	28 2f       	mov	r18, r24
    16b8:	30 e0       	ldi	r19, 0x00	; 0
    16ba:	29 1b       	sub	r18, r25
    16bc:	31 09       	sbc	r19, r1
    16be:	41 e0       	ldi	r20, 0x01	; 1
    16c0:	2f 31       	cpi	r18, 0x1F	; 31
    16c2:	31 05       	cpc	r19, r1
    16c4:	74 f4       	brge	.+28     	; 0x16e2 <_ZN4User4Uart10isr_rx_exeEv+0x3a>
    16c6:	40 e0       	ldi	r20, 0x00	; 0
    16c8:	0c c0       	rjmp	.+24     	; 0x16e2 <_ZN4User4Uart10isr_rx_exeEv+0x3a>
    16ca:	45 81       	ldd	r20, Z+5	; 0x05
    16cc:	28 2f       	mov	r18, r24
    16ce:	30 e0       	ldi	r19, 0x00	; 0
    16d0:	24 0f       	add	r18, r20
    16d2:	31 1d       	adc	r19, r1
    16d4:	29 1b       	sub	r18, r25
    16d6:	31 09       	sbc	r19, r1
    16d8:	41 e0       	ldi	r20, 0x01	; 1
    16da:	2f 31       	cpi	r18, 0x1F	; 31
    16dc:	31 05       	cpc	r19, r1
    16de:	0c f4       	brge	.+2      	; 0x16e2 <_ZN4User4Uart10isr_rx_exeEv+0x3a>
    16e0:	40 e0       	ldi	r20, 0x00	; 0
    16e2:	41 11       	cpse	r20, r1
    16e4:	38 c0       	rjmp	.+112    	; 0x1756 <_ZN4User4Uart10isr_rx_exeEv+0xae>
	}
	//if: there is space in the RX buffer
	else
	{
		//Push byte into RX buffer for processing
		AT_BUF_PUSH_SAFER( this -> rpi_rx_buf, rx_data_tmp );
    16e6:	22 85       	ldd	r18, Z+10	; 0x0a
    16e8:	20 fd       	sbrc	r18, 0
    16ea:	30 c0       	rjmp	.+96     	; 0x174c <_ZN4User4Uart10isr_rx_exeEv+0xa4>
    16ec:	21 60       	ori	r18, 0x01	; 1
    16ee:	22 87       	std	Z+10, r18	; 0x0a
    16f0:	89 17       	cp	r24, r25
    16f2:	28 f0       	brcs	.+10     	; 0x16fe <_ZN4User4Uart10isr_rx_exeEv+0x56>
    16f4:	48 2f       	mov	r20, r24
    16f6:	50 e0       	ldi	r21, 0x00	; 0
    16f8:	49 1b       	sub	r20, r25
    16fa:	51 09       	sbc	r21, r1
    16fc:	07 c0       	rjmp	.+14     	; 0x170c <_ZN4User4Uart10isr_rx_exeEv+0x64>
    16fe:	25 81       	ldd	r18, Z+5	; 0x05
    1700:	48 2f       	mov	r20, r24
    1702:	50 e0       	ldi	r21, 0x00	; 0
    1704:	42 0f       	add	r20, r18
    1706:	51 1d       	adc	r21, r1
    1708:	49 1b       	sub	r20, r25
    170a:	51 09       	sbc	r21, r1
    170c:	25 81       	ldd	r18, Z+5	; 0x05
    170e:	30 e0       	ldi	r19, 0x00	; 0
    1710:	21 50       	subi	r18, 0x01	; 1
    1712:	31 09       	sbc	r19, r1
    1714:	42 17       	cp	r20, r18
    1716:	53 07       	cpc	r21, r19
    1718:	b4 f4       	brge	.+44     	; 0x1746 <_ZN4User4Uart10isr_rx_exeEv+0x9e>
    171a:	a0 85       	ldd	r26, Z+8	; 0x08
    171c:	b1 85       	ldd	r27, Z+9	; 0x09
    171e:	a8 0f       	add	r26, r24
    1720:	b1 1d       	adc	r27, r1
    1722:	6c 93       	st	X, r22
    1724:	27 81       	ldd	r18, Z+7	; 0x07
    1726:	42 2f       	mov	r20, r18
    1728:	50 e0       	ldi	r21, 0x00	; 0
    172a:	85 81       	ldd	r24, Z+5	; 0x05
    172c:	90 e0       	ldi	r25, 0x00	; 0
    172e:	01 97       	sbiw	r24, 0x01	; 1
    1730:	48 17       	cp	r20, r24
    1732:	59 07       	cpc	r21, r25
    1734:	1c f4       	brge	.+6      	; 0x173c <_ZN4User4Uart10isr_rx_exeEv+0x94>
    1736:	2f 5f       	subi	r18, 0xFF	; 255
    1738:	27 83       	std	Z+7, r18	; 0x07
    173a:	01 c0       	rjmp	.+2      	; 0x173e <_ZN4User4Uart10isr_rx_exeEv+0x96>
    173c:	17 82       	std	Z+7, r1	; 0x07
    173e:	82 85       	ldd	r24, Z+10	; 0x0a
    1740:	8e 7f       	andi	r24, 0xFE	; 254
    1742:	82 87       	std	Z+10, r24	; 0x0a
    1744:	03 c0       	rjmp	.+6      	; 0x174c <_ZN4User4Uart10isr_rx_exeEv+0xa4>
    1746:	82 85       	ldd	r24, Z+10	; 0x0a
    1748:	8e 7f       	andi	r24, 0xFE	; 254
    174a:	82 87       	std	Z+10, r24	; 0x0a
		//Profile
		this -> gu16_rx_cnt++;
    174c:	81 81       	ldd	r24, Z+1	; 0x01
    174e:	92 81       	ldd	r25, Z+2	; 0x02
    1750:	01 96       	adiw	r24, 0x01	; 1
    1752:	81 83       	std	Z+1, r24	; 0x01
    1754:	92 83       	std	Z+2, r25	; 0x02
	///--------------------------------------------------------------------------
	///	RETURN
	///--------------------------------------------------------------------------
	DRETURN();	//Trace Return
	return false;	//OK
}	//end public method: isr_rx_exe | void |
    1756:	80 e0       	ldi	r24, 0x00	; 0
    1758:	08 95       	ret

0000175a <_ZN4User4Uart6updateEv>:
//!	@details
//! Background uart driver method. Meant to be executed periodically by the user
/***************************************************************************/

bool Uart::update( void )
{
    175a:	fc 01       	movw	r30, r24
	///--------------------------------------------------------------------------
	///	BODY
	///--------------------------------------------------------------------------

	//if: RPI TX buffer is not empty and the RPI TX HW buffer is ready to transmit
	if ( (AT_BUF_NUMELEM( this -> rpi_tx_buf ) > 0) && (IS_BIT_ONE(USART0.STATUS, USART_DREIF_bp)))
    175c:	25 85       	ldd	r18, Z+13	; 0x0d
    175e:	84 85       	ldd	r24, Z+12	; 0x0c
    1760:	28 17       	cp	r18, r24
    1762:	40 f0       	brcs	.+16     	; 0x1774 <_ZN4User4Uart6updateEv+0x1a>
    1764:	30 e0       	ldi	r19, 0x00	; 0
    1766:	28 1b       	sub	r18, r24
    1768:	31 09       	sbc	r19, r1
    176a:	12 16       	cp	r1, r18
    176c:	13 06       	cpc	r1, r19
    176e:	5c f0       	brlt	.+22     	; 0x1786 <_ZN4User4Uart6updateEv+0x2c>
    1770:	90 e0       	ldi	r25, 0x00	; 0
    1772:	12 c0       	rjmp	.+36     	; 0x1798 <_ZN4User4Uart6updateEv+0x3e>
    1774:	93 85       	ldd	r25, Z+11	; 0x0b
    1776:	30 e0       	ldi	r19, 0x00	; 0
    1778:	29 0f       	add	r18, r25
    177a:	31 1d       	adc	r19, r1
    177c:	28 1b       	sub	r18, r24
    177e:	31 09       	sbc	r19, r1
    1780:	12 16       	cp	r1, r18
    1782:	13 06       	cpc	r1, r19
    1784:	34 f4       	brge	.+12     	; 0x1792 <_ZN4User4Uart6updateEv+0x38>
    1786:	90 91 04 08 	lds	r25, 0x0804	; 0x800804 <__TEXT_REGION_LENGTH__+0x7f4804>
    178a:	95 fd       	sbrc	r25, 5
    178c:	04 c0       	rjmp	.+8      	; 0x1796 <_ZN4User4Uart6updateEv+0x3c>
    178e:	90 e0       	ldi	r25, 0x00	; 0
    1790:	03 c0       	rjmp	.+6      	; 0x1798 <_ZN4User4Uart6updateEv+0x3e>
    1792:	90 e0       	ldi	r25, 0x00	; 0
    1794:	01 c0       	rjmp	.+2      	; 0x1798 <_ZN4User4Uart6updateEv+0x3e>
    1796:	91 e0       	ldi	r25, 0x01	; 1
    1798:	99 23       	and	r25, r25
    179a:	c9 f0       	breq	.+50     	; 0x17ce <_ZN4User4Uart6updateEv+0x74>
	{
		//Get the byte to be filtered out
		uint8_t tx_tmp = AT_BUF_PEEK( this -> rpi_tx_buf );
    179c:	a6 85       	ldd	r26, Z+14	; 0x0e
    179e:	b7 85       	ldd	r27, Z+15	; 0x0f
    17a0:	48 2f       	mov	r20, r24
    17a2:	50 e0       	ldi	r21, 0x00	; 0
    17a4:	a4 0f       	add	r26, r20
    17a6:	b5 1f       	adc	r27, r21
    17a8:	9c 91       	ld	r25, X
		AT_BUF_KICK( this -> rpi_tx_buf );
    17aa:	23 85       	ldd	r18, Z+11	; 0x0b
    17ac:	30 e0       	ldi	r19, 0x00	; 0
    17ae:	21 50       	subi	r18, 0x01	; 1
    17b0:	31 09       	sbc	r19, r1
    17b2:	42 17       	cp	r20, r18
    17b4:	53 07       	cpc	r21, r19
    17b6:	1c f4       	brge	.+6      	; 0x17be <_ZN4User4Uart6updateEv+0x64>
    17b8:	8f 5f       	subi	r24, 0xFF	; 255
    17ba:	84 87       	std	Z+12, r24	; 0x0c
    17bc:	01 c0       	rjmp	.+2      	; 0x17c0 <_ZN4User4Uart6updateEv+0x66>
    17be:	14 86       	std	Z+12, r1	; 0x0c
		//Send data through the UART
		USART0.TXDATAL = tx_tmp;
    17c0:	90 93 02 08 	sts	0x0802, r25	; 0x800802 <__TEXT_REGION_LENGTH__+0x7f4802>
		//Profile
		this -> gu16_tx_cnt++;
    17c4:	83 81       	ldd	r24, Z+3	; 0x03
    17c6:	94 81       	ldd	r25, Z+4	; 0x04
    17c8:	01 96       	adiw	r24, 0x01	; 1
    17ca:	83 83       	std	Z+3, r24	; 0x03
    17cc:	94 83       	std	Z+4, r25	; 0x04
	///--------------------------------------------------------------------------
	///	RETURN
	///--------------------------------------------------------------------------
	DRETURN();	//Trace Return
	return false;	//OK
}	//end : update | void |
    17ce:	80 e0       	ldi	r24, 0x00	; 0
    17d0:	08 95       	ret

000017d2 <_ZN4User4Uart9init_uartER12USART_structj>:
//!	256.0K		||	625		| 20MHz			| Fast		| 265.0KHz
//!	------------------------------------------------------------------------
/***************************************************************************/

bool Uart::init_uart( USART_t &ist_uart, uint16_t iu16_baud )
{
    17d2:	fb 01       	movw	r30, r22
	//----------------------------------------------------------------
	//	VARS
	//----------------------------------------------------------------

	//! Fetch registers
	uint8_t ctrl_a		= ist_uart.CTRLA;
    17d4:	25 81       	ldd	r18, Z+5	; 0x05
	uint8_t ctrl_b		= ist_uart.CTRLB;
    17d6:	96 81       	ldd	r25, Z+6	; 0x06
	uint8_t ctrl_c		= ist_uart.CTRLC;
    17d8:	87 81       	ldd	r24, Z+7	; 0x07
	uint8_t dbgctrl_tmp	= ist_uart.DBGCTRL;
    17da:	63 85       	ldd	r22, Z+11	; 0x0b
	uint8_t ctrl_ev		= ist_uart.EVCTRL;
    17dc:	34 85       	ldd	r19, Z+12	; 0x0c
    17de:	8f 73       	andi	r24, 0x3F	; 63
	//UART will keep running when in debug
	//SET_BIT( dbgctrl_tmp, USART_DBGRUN_bp);
	
	//! UART operation mode
	//Asynchronous UART Mode
	SET_MASKED_BIT( ctrl_c, USART_CMODE_gm, USART_CMODE_ASYNCHRONOUS_gc );
    17e0:	88 60       	ori	r24, 0x08	; 8
	//Master SPI Mode
	//SET_MASKED_BIT( ctrl_c, USART_CMODE_gm, USART_CMODE_MSPI_gc );
	
	//! 485 Mode
	//Disable 485 Mode
	SET_MASKED_BIT( ctrl_a, USART_RS485_gm, USART_RS485_OFF_gc );
    17e2:	2c 7f       	andi	r18, 0xFC	; 252
    17e4:	99 7f       	andi	r25, 0xF9	; 249
	//Internal 485 mode
	//SET_MASKED_BIT( ctrl_a, USART_RS485_gm, USART_RS485_INT_gc );
	
	//!	RX Mode
	//Normal mode
	SET_MASKED_BIT( ctrl_b, USART_RXMODE_gm, USART_RXMODE_NORMAL_gc );
    17e6:	90 6c       	ori	r25, 0xC0	; 192
	//6 bit
	//SET_MASKED_BIT( ctrl_c, USART_CHSIZE_gm, USART_CHSIZE_6BIT_gc );
	//7 bit
	//SET_MASKED_BIT( ctrl_c, USART_CHSIZE_gm, USART_CHSIZE_7BIT_gc );
	//8 bit
	SET_MASKED_BIT( ctrl_c, USART_CHSIZE_gm, USART_CHSIZE_8BIT_gc );
    17e8:	88 7f       	andi	r24, 0xF8	; 248
    17ea:	83 60       	ori	r24, 0x03	; 3
	//SET_MASKED_BIT( ctrl_c, USART_CHSIZE_gm, USART_CHSIZE_9BITH_gc );
	
	
	//! Parity Mode
	//No parity bit
	SET_MASKED_BIT( ctrl_c, USART_PMODE_gm, USART_PMODE_DISABLED_gc );
    17ec:	8f 7c       	andi	r24, 0xCF	; 207
	//Enable Data register empty interrupt
	//SET_BIT( ctrl_a, USART_DREIE_bp );
	//Enable TX Interrupt
	//SET_BIT( ctrl_a, USART_TXCIE_bp );
	//Enable RX Interrupt
	SET_BIT( ctrl_a, USART_RXCIE_bp );
    17ee:	20 68       	ori	r18, 0x80	; 128
	//	WRITE BACK
	//----------------------------------------------------------------
	
	//! Baud rate register
	//Set the baud rate of the peripheral
	ist_uart.BAUD = iu16_baud;
    17f0:	40 87       	std	Z+8, r20	; 0x08
    17f2:	51 87       	std	Z+9, r21	; 0x09
	
	//! Infrared mode
	//Infrared transmitter pulse length
	ist_uart.TXPLCTRL = 0;
    17f4:	15 86       	std	Z+13, r1	; 0x0d
	//Infrared receiver pulse length
	ist_uart.RXPLCTRL = 0;
    17f6:	16 86       	std	Z+14, r1	; 0x0e
	
	//Write back configuration registers
	ist_uart.DBGCTRL = dbgctrl_tmp;
    17f8:	63 87       	std	Z+11, r22	; 0x0b
	ist_uart.CTRLC = ctrl_c;
    17fa:	87 83       	std	Z+7, r24	; 0x07
	//Writing back this register enables interrupts
	ist_uart.EVCTRL = ctrl_ev;
    17fc:	34 87       	std	Z+12, r19	; 0x0c
	ist_uart.CTRLA = ctrl_a;
    17fe:	25 83       	std	Z+5, r18	; 0x05
	//Writing back his register will enables the UART
	ist_uart.CTRLB = ctrl_b;
    1800:	96 83       	std	Z+6, r25	; 0x06

	return false; //OK
}	//End: init_uart
    1802:	80 e0       	ldi	r24, 0x00	; 0
    1804:	08 95       	ret

00001806 <_ZN4User4Uart4initEv>:
//!	@details
//! Method
/***************************************************************************/

bool Uart::init( void )
{
    1806:	fc 01       	movw	r30, r24
	///--------------------------------------------------------------------------
	///	BODY
	///--------------------------------------------------------------------------

	//Reset profilers
	this -> gu16_rx_cnt = 0;
    1808:	11 82       	std	Z+1, r1	; 0x01
    180a:	12 82       	std	Z+2, r1	; 0x02
	this -> gu16_tx_cnt = 0;
    180c:	13 82       	std	Z+3, r1	; 0x03
    180e:	14 82       	std	Z+4, r1	; 0x04
	//attach vector to buffer
	AT_BUF_ATTACH( this -> rpi_rx_buf, this -> v0, Config::RX_BUFFER_SIZE);
    1810:	40 96       	adiw	r24, 0x10	; 16
    1812:	80 87       	std	Z+8, r24	; 0x08
    1814:	91 87       	std	Z+9, r25	; 0x09
    1816:	80 e2       	ldi	r24, 0x20	; 32
    1818:	85 83       	std	Z+5, r24	; 0x05
	//attach vector to buffer
	AT_BUF_ATTACH( this -> rpi_tx_buf, this -> v1, Config::TX_BUFFER_SIZE);
    181a:	cf 01       	movw	r24, r30
    181c:	c0 96       	adiw	r24, 0x30	; 48
    181e:	86 87       	std	Z+14, r24	; 0x0e
    1820:	97 87       	std	Z+15, r25	; 0x0f
    1822:	80 e1       	ldi	r24, 0x10	; 16
    1824:	83 87       	std	Z+11, r24	; 0x0b
	//Activate USART0 @256Kb/s
	this->init_uart( USART0, 313 );
    1826:	49 e3       	ldi	r20, 0x39	; 57
    1828:	51 e0       	ldi	r21, 0x01	; 1
    182a:	60 e0       	ldi	r22, 0x00	; 0
    182c:	78 e0       	ldi	r23, 0x08	; 8
    182e:	cf 01       	movw	r24, r30
    1830:	0e 94 e9 0b 	call	0x17d2	; 0x17d2 <_ZN4User4Uart9init_uartER12USART_structj>
	///--------------------------------------------------------------------------
	///	RETURN
	///--------------------------------------------------------------------------
	DRETURN();	//Trace Return
	return false;	//OK
}	//end method: init | void
    1834:	80 e0       	ldi	r24, 0x00	; 0
    1836:	08 95       	ret

00001838 <_ZN4User4UartC1Ev>:
	///--------------------------------------------------------------------------
	///	BODY
	///--------------------------------------------------------------------------

	//Initialize class
	this -> init();
    1838:	0e 94 03 0c 	call	0x1806	; 0x1806 <_ZN4User4Uart4initEv>
    183c:	08 95       	ret

0000183e <__udivmodqi4>:
    183e:	99 1b       	sub	r25, r25
    1840:	79 e0       	ldi	r23, 0x09	; 9
    1842:	04 c0       	rjmp	.+8      	; 0x184c <__udivmodqi4_ep>

00001844 <__udivmodqi4_loop>:
    1844:	99 1f       	adc	r25, r25
    1846:	96 17       	cp	r25, r22
    1848:	08 f0       	brcs	.+2      	; 0x184c <__udivmodqi4_ep>
    184a:	96 1b       	sub	r25, r22

0000184c <__udivmodqi4_ep>:
    184c:	88 1f       	adc	r24, r24
    184e:	7a 95       	dec	r23
    1850:	c9 f7       	brne	.-14     	; 0x1844 <__udivmodqi4_loop>
    1852:	80 95       	com	r24
    1854:	08 95       	ret

00001856 <__udivmodhi4>:
    1856:	aa 1b       	sub	r26, r26
    1858:	bb 1b       	sub	r27, r27
    185a:	51 e1       	ldi	r21, 0x11	; 17
    185c:	07 c0       	rjmp	.+14     	; 0x186c <__udivmodhi4_ep>

0000185e <__udivmodhi4_loop>:
    185e:	aa 1f       	adc	r26, r26
    1860:	bb 1f       	adc	r27, r27
    1862:	a6 17       	cp	r26, r22
    1864:	b7 07       	cpc	r27, r23
    1866:	10 f0       	brcs	.+4      	; 0x186c <__udivmodhi4_ep>
    1868:	a6 1b       	sub	r26, r22
    186a:	b7 0b       	sbc	r27, r23

0000186c <__udivmodhi4_ep>:
    186c:	88 1f       	adc	r24, r24
    186e:	99 1f       	adc	r25, r25
    1870:	5a 95       	dec	r21
    1872:	a9 f7       	brne	.-22     	; 0x185e <__udivmodhi4_loop>
    1874:	80 95       	com	r24
    1876:	90 95       	com	r25
    1878:	bc 01       	movw	r22, r24
    187a:	cd 01       	movw	r24, r26
    187c:	08 95       	ret

0000187e <__udivmodsi4>:
    187e:	a1 e2       	ldi	r26, 0x21	; 33
    1880:	1a 2e       	mov	r1, r26
    1882:	aa 1b       	sub	r26, r26
    1884:	bb 1b       	sub	r27, r27
    1886:	fd 01       	movw	r30, r26
    1888:	0d c0       	rjmp	.+26     	; 0x18a4 <__udivmodsi4_ep>

0000188a <__udivmodsi4_loop>:
    188a:	aa 1f       	adc	r26, r26
    188c:	bb 1f       	adc	r27, r27
    188e:	ee 1f       	adc	r30, r30
    1890:	ff 1f       	adc	r31, r31
    1892:	a2 17       	cp	r26, r18
    1894:	b3 07       	cpc	r27, r19
    1896:	e4 07       	cpc	r30, r20
    1898:	f5 07       	cpc	r31, r21
    189a:	20 f0       	brcs	.+8      	; 0x18a4 <__udivmodsi4_ep>
    189c:	a2 1b       	sub	r26, r18
    189e:	b3 0b       	sbc	r27, r19
    18a0:	e4 0b       	sbc	r30, r20
    18a2:	f5 0b       	sbc	r31, r21

000018a4 <__udivmodsi4_ep>:
    18a4:	66 1f       	adc	r22, r22
    18a6:	77 1f       	adc	r23, r23
    18a8:	88 1f       	adc	r24, r24
    18aa:	99 1f       	adc	r25, r25
    18ac:	1a 94       	dec	r1
    18ae:	69 f7       	brne	.-38     	; 0x188a <__udivmodsi4_loop>
    18b0:	60 95       	com	r22
    18b2:	70 95       	com	r23
    18b4:	80 95       	com	r24
    18b6:	90 95       	com	r25
    18b8:	9b 01       	movw	r18, r22
    18ba:	ac 01       	movw	r20, r24
    18bc:	bd 01       	movw	r22, r26
    18be:	cf 01       	movw	r24, r30
    18c0:	08 95       	ret

000018c2 <__tablejump2__>:
    18c2:	ee 0f       	add	r30, r30
    18c4:	ff 1f       	adc	r31, r31
    18c6:	05 90       	lpm	r0, Z+
    18c8:	f4 91       	lpm	r31, Z
    18ca:	e0 2d       	mov	r30, r0
    18cc:	09 94       	ijmp

000018ce <__umulhisi3>:
    18ce:	a2 9f       	mul	r26, r18
    18d0:	b0 01       	movw	r22, r0
    18d2:	b3 9f       	mul	r27, r19
    18d4:	c0 01       	movw	r24, r0
    18d6:	a3 9f       	mul	r26, r19
    18d8:	70 0d       	add	r23, r0
    18da:	81 1d       	adc	r24, r1
    18dc:	11 24       	eor	r1, r1
    18de:	91 1d       	adc	r25, r1
    18e0:	b2 9f       	mul	r27, r18
    18e2:	70 0d       	add	r23, r0
    18e4:	81 1d       	adc	r24, r1
    18e6:	11 24       	eor	r1, r1
    18e8:	91 1d       	adc	r25, r1
    18ea:	08 95       	ret

000018ec <__muluhisi3>:
    18ec:	0e 94 67 0c 	call	0x18ce	; 0x18ce <__umulhisi3>
    18f0:	a5 9f       	mul	r26, r21
    18f2:	90 0d       	add	r25, r0
    18f4:	b4 9f       	mul	r27, r20
    18f6:	90 0d       	add	r25, r0
    18f8:	a4 9f       	mul	r26, r20
    18fa:	80 0d       	add	r24, r0
    18fc:	91 1d       	adc	r25, r1
    18fe:	11 24       	eor	r1, r1
    1900:	08 95       	ret

00001902 <do_rand>:
    1902:	8f 92       	push	r8
    1904:	9f 92       	push	r9
    1906:	af 92       	push	r10
    1908:	bf 92       	push	r11
    190a:	cf 92       	push	r12
    190c:	df 92       	push	r13
    190e:	ef 92       	push	r14
    1910:	ff 92       	push	r15
    1912:	cf 93       	push	r28
    1914:	df 93       	push	r29
    1916:	ec 01       	movw	r28, r24
    1918:	68 81       	ld	r22, Y
    191a:	79 81       	ldd	r23, Y+1	; 0x01
    191c:	8a 81       	ldd	r24, Y+2	; 0x02
    191e:	9b 81       	ldd	r25, Y+3	; 0x03
    1920:	61 15       	cp	r22, r1
    1922:	71 05       	cpc	r23, r1
    1924:	81 05       	cpc	r24, r1
    1926:	91 05       	cpc	r25, r1
    1928:	21 f4       	brne	.+8      	; 0x1932 <do_rand+0x30>
    192a:	64 e2       	ldi	r22, 0x24	; 36
    192c:	79 ed       	ldi	r23, 0xD9	; 217
    192e:	8b e5       	ldi	r24, 0x5B	; 91
    1930:	97 e0       	ldi	r25, 0x07	; 7
    1932:	2d e1       	ldi	r18, 0x1D	; 29
    1934:	33 ef       	ldi	r19, 0xF3	; 243
    1936:	41 e0       	ldi	r20, 0x01	; 1
    1938:	50 e0       	ldi	r21, 0x00	; 0
    193a:	0e 94 dd 0c 	call	0x19ba	; 0x19ba <__divmodsi4>
    193e:	49 01       	movw	r8, r18
    1940:	5a 01       	movw	r10, r20
    1942:	9b 01       	movw	r18, r22
    1944:	ac 01       	movw	r20, r24
    1946:	a7 ea       	ldi	r26, 0xA7	; 167
    1948:	b1 e4       	ldi	r27, 0x41	; 65
    194a:	0e 94 76 0c 	call	0x18ec	; 0x18ec <__muluhisi3>
    194e:	6b 01       	movw	r12, r22
    1950:	7c 01       	movw	r14, r24
    1952:	ac ee       	ldi	r26, 0xEC	; 236
    1954:	b4 ef       	ldi	r27, 0xF4	; 244
    1956:	a5 01       	movw	r20, r10
    1958:	94 01       	movw	r18, r8
    195a:	0e 94 ff 0c 	call	0x19fe	; 0x19fe <__mulohisi3>
    195e:	dc 01       	movw	r26, r24
    1960:	cb 01       	movw	r24, r22
    1962:	8c 0d       	add	r24, r12
    1964:	9d 1d       	adc	r25, r13
    1966:	ae 1d       	adc	r26, r14
    1968:	bf 1d       	adc	r27, r15
    196a:	b7 ff       	sbrs	r27, 7
    196c:	03 c0       	rjmp	.+6      	; 0x1974 <do_rand+0x72>
    196e:	01 97       	sbiw	r24, 0x01	; 1
    1970:	a1 09       	sbc	r26, r1
    1972:	b0 48       	sbci	r27, 0x80	; 128
    1974:	88 83       	st	Y, r24
    1976:	99 83       	std	Y+1, r25	; 0x01
    1978:	aa 83       	std	Y+2, r26	; 0x02
    197a:	bb 83       	std	Y+3, r27	; 0x03
    197c:	9f 77       	andi	r25, 0x7F	; 127
    197e:	df 91       	pop	r29
    1980:	cf 91       	pop	r28
    1982:	ff 90       	pop	r15
    1984:	ef 90       	pop	r14
    1986:	df 90       	pop	r13
    1988:	cf 90       	pop	r12
    198a:	bf 90       	pop	r11
    198c:	af 90       	pop	r10
    198e:	9f 90       	pop	r9
    1990:	8f 90       	pop	r8
    1992:	08 95       	ret

00001994 <rand_r>:
    1994:	0e 94 81 0c 	call	0x1902	; 0x1902 <do_rand>
    1998:	08 95       	ret

0000199a <rand>:
    199a:	80 e0       	ldi	r24, 0x00	; 0
    199c:	98 e2       	ldi	r25, 0x28	; 40
    199e:	0e 94 81 0c 	call	0x1902	; 0x1902 <do_rand>
    19a2:	08 95       	ret

000019a4 <srand>:
    19a4:	a0 e0       	ldi	r26, 0x00	; 0
    19a6:	b0 e0       	ldi	r27, 0x00	; 0
    19a8:	80 93 00 28 	sts	0x2800, r24	; 0x802800 <__DATA_REGION_ORIGIN__>
    19ac:	90 93 01 28 	sts	0x2801, r25	; 0x802801 <__DATA_REGION_ORIGIN__+0x1>
    19b0:	a0 93 02 28 	sts	0x2802, r26	; 0x802802 <__DATA_REGION_ORIGIN__+0x2>
    19b4:	b0 93 03 28 	sts	0x2803, r27	; 0x802803 <__DATA_REGION_ORIGIN__+0x3>
    19b8:	08 95       	ret

000019ba <__divmodsi4>:
    19ba:	05 2e       	mov	r0, r21
    19bc:	97 fb       	bst	r25, 7
    19be:	1e f4       	brtc	.+6      	; 0x19c6 <__divmodsi4+0xc>
    19c0:	00 94       	com	r0
    19c2:	0e 94 f4 0c 	call	0x19e8	; 0x19e8 <__negsi2>
    19c6:	57 fd       	sbrc	r21, 7
    19c8:	07 d0       	rcall	.+14     	; 0x19d8 <__divmodsi4_neg2>
    19ca:	0e 94 3f 0c 	call	0x187e	; 0x187e <__udivmodsi4>
    19ce:	07 fc       	sbrc	r0, 7
    19d0:	03 d0       	rcall	.+6      	; 0x19d8 <__divmodsi4_neg2>
    19d2:	4e f4       	brtc	.+18     	; 0x19e6 <__divmodsi4_exit>
    19d4:	0c 94 f4 0c 	jmp	0x19e8	; 0x19e8 <__negsi2>

000019d8 <__divmodsi4_neg2>:
    19d8:	50 95       	com	r21
    19da:	40 95       	com	r20
    19dc:	30 95       	com	r19
    19de:	21 95       	neg	r18
    19e0:	3f 4f       	sbci	r19, 0xFF	; 255
    19e2:	4f 4f       	sbci	r20, 0xFF	; 255
    19e4:	5f 4f       	sbci	r21, 0xFF	; 255

000019e6 <__divmodsi4_exit>:
    19e6:	08 95       	ret

000019e8 <__negsi2>:
    19e8:	90 95       	com	r25
    19ea:	80 95       	com	r24
    19ec:	70 95       	com	r23
    19ee:	61 95       	neg	r22
    19f0:	7f 4f       	sbci	r23, 0xFF	; 255
    19f2:	8f 4f       	sbci	r24, 0xFF	; 255
    19f4:	9f 4f       	sbci	r25, 0xFF	; 255
    19f6:	08 95       	ret

000019f8 <__mulshisi3>:
    19f8:	b7 ff       	sbrs	r27, 7
    19fa:	0c 94 76 0c 	jmp	0x18ec	; 0x18ec <__muluhisi3>

000019fe <__mulohisi3>:
    19fe:	0e 94 76 0c 	call	0x18ec	; 0x18ec <__muluhisi3>
    1a02:	82 1b       	sub	r24, r18
    1a04:	93 0b       	sbc	r25, r19
    1a06:	08 95       	ret

00001a08 <__do_global_dtors>:
    1a08:	10 e0       	ldi	r17, 0x00	; 0
    1a0a:	c9 e5       	ldi	r28, 0x59	; 89
    1a0c:	d0 e0       	ldi	r29, 0x00	; 0
    1a0e:	04 c0       	rjmp	.+8      	; 0x1a18 <__do_global_dtors+0x10>
    1a10:	fe 01       	movw	r30, r28
    1a12:	0e 94 61 0c 	call	0x18c2	; 0x18c2 <__tablejump2__>
    1a16:	21 96       	adiw	r28, 0x01	; 1
    1a18:	ca 35       	cpi	r28, 0x5A	; 90
    1a1a:	d1 07       	cpc	r29, r17
    1a1c:	c9 f7       	brne	.-14     	; 0x1a10 <__do_global_dtors+0x8>
    1a1e:	f8 94       	cli

00001a20 <__stop_program>:
    1a20:	ff cf       	rjmp	.-2      	; 0x1a20 <__stop_program>
