
2021-12-18b AT4809 OrangeHat Servo.elf:     file format elf32-avr

Sections:
Idx Name          Size      VMA       LMA       File off  Algn
  0 .data         00000004  00802800  00001651  00001705  2**0
                  CONTENTS, ALLOC, LOAD, DATA
  1 .text         0000160a  00000000  00000000  000000b4  2**1
                  CONTENTS, ALLOC, LOAD, READONLY, CODE
  2 .rodata       00000047  0000560a  0000160a  000016be  2**0
                  CONTENTS, ALLOC, LOAD, READONLY, DATA
  3 .bss          0000009b  00802804  00802804  00001709  2**0
                  ALLOC
  4 .comment      00000030  00000000  00000000  00001709  2**0
                  CONTENTS, READONLY
  5 .note.gnu.avr.deviceinfo 00000040  00000000  00000000  0000173c  2**2
                  CONTENTS, READONLY
  6 .debug_info   0000248a  00000000  00000000  0000177c  2**0
                  CONTENTS, READONLY, DEBUGGING
  7 .debug_abbrev 00002296  00000000  00000000  00003c06  2**0
                  CONTENTS, READONLY, DEBUGGING
  8 .debug_line   00000187  00000000  00000000  00005e9c  2**0
                  CONTENTS, READONLY, DEBUGGING
  9 .debug_str    00000f85  00000000  00000000  00006023  2**0
                  CONTENTS, READONLY, DEBUGGING

Disassembly of section .text:

00000000 <__vectors>:
       0:	0c 94 5a 00 	jmp	0xb4	; 0xb4 <__dtors_end>
       4:	0c 94 82 00 	jmp	0x104	; 0x104 <__bad_interrupt>
       8:	0c 94 82 00 	jmp	0x104	; 0x104 <__bad_interrupt>
       c:	0c 94 82 00 	jmp	0x104	; 0x104 <__bad_interrupt>
      10:	0c 94 3f 04 	jmp	0x87e	; 0x87e <__vector_4>
      14:	0c 94 82 00 	jmp	0x104	; 0x104 <__bad_interrupt>
      18:	0c 94 82 00 	jmp	0x104	; 0x104 <__bad_interrupt>
      1c:	0c 94 87 04 	jmp	0x90e	; 0x90e <__vector_7>
      20:	0c 94 82 00 	jmp	0x104	; 0x104 <__bad_interrupt>
      24:	0c 94 82 00 	jmp	0x104	; 0x104 <__bad_interrupt>
      28:	0c 94 82 00 	jmp	0x104	; 0x104 <__bad_interrupt>
      2c:	0c 94 82 00 	jmp	0x104	; 0x104 <__bad_interrupt>
      30:	0c 94 82 00 	jmp	0x104	; 0x104 <__bad_interrupt>
      34:	0c 94 82 00 	jmp	0x104	; 0x104 <__bad_interrupt>
      38:	0c 94 82 00 	jmp	0x104	; 0x104 <__bad_interrupt>
      3c:	0c 94 82 00 	jmp	0x104	; 0x104 <__bad_interrupt>
      40:	0c 94 82 00 	jmp	0x104	; 0x104 <__bad_interrupt>
      44:	0c 94 82 00 	jmp	0x104	; 0x104 <__bad_interrupt>
      48:	0c 94 82 00 	jmp	0x104	; 0x104 <__bad_interrupt>
      4c:	0c 94 82 00 	jmp	0x104	; 0x104 <__bad_interrupt>
      50:	0c 94 82 00 	jmp	0x104	; 0x104 <__bad_interrupt>
      54:	0c 94 82 00 	jmp	0x104	; 0x104 <__bad_interrupt>
      58:	0c 94 82 00 	jmp	0x104	; 0x104 <__bad_interrupt>
      5c:	0c 94 82 00 	jmp	0x104	; 0x104 <__bad_interrupt>
      60:	0c 94 82 00 	jmp	0x104	; 0x104 <__bad_interrupt>
      64:	0c 94 82 00 	jmp	0x104	; 0x104 <__bad_interrupt>
      68:	0c 94 82 00 	jmp	0x104	; 0x104 <__bad_interrupt>
      6c:	0c 94 82 00 	jmp	0x104	; 0x104 <__bad_interrupt>
      70:	0c 94 82 00 	jmp	0x104	; 0x104 <__bad_interrupt>
      74:	0c 94 82 00 	jmp	0x104	; 0x104 <__bad_interrupt>
      78:	0c 94 82 00 	jmp	0x104	; 0x104 <__bad_interrupt>
      7c:	0c 94 82 00 	jmp	0x104	; 0x104 <__bad_interrupt>
      80:	0c 94 82 00 	jmp	0x104	; 0x104 <__bad_interrupt>
      84:	0c 94 82 00 	jmp	0x104	; 0x104 <__bad_interrupt>
      88:	0c 94 82 00 	jmp	0x104	; 0x104 <__bad_interrupt>
      8c:	0c 94 82 00 	jmp	0x104	; 0x104 <__bad_interrupt>
      90:	0c 94 82 00 	jmp	0x104	; 0x104 <__bad_interrupt>
      94:	0c 94 82 00 	jmp	0x104	; 0x104 <__bad_interrupt>
      98:	0c 94 82 00 	jmp	0x104	; 0x104 <__bad_interrupt>
      9c:	0c 94 82 00 	jmp	0x104	; 0x104 <__bad_interrupt>
      a0:	03 06       	cpc	r0, r19
      a2:	08 06       	cpc	r0, r24
      a4:	12 06       	cpc	r1, r18
      a6:	18 06       	cpc	r1, r24
      a8:	21 06       	cpc	r2, r17
      aa:	26 06       	cpc	r2, r22
      ac:	2d 06       	cpc	r2, r29
      ae:	33 06       	cpc	r3, r19

000000b0 <__ctors_start>:
      b0:	71 05       	cpc	r23, r1

000000b2 <__ctors_end>:
      b2:	75 05       	cpc	r23, r5

000000b4 <__dtors_end>:
      b4:	11 24       	eor	r1, r1
      b6:	1f be       	out	0x3f, r1	; 63
      b8:	cf ef       	ldi	r28, 0xFF	; 255
      ba:	cd bf       	out	0x3d, r28	; 61
      bc:	df e3       	ldi	r29, 0x3F	; 63
      be:	de bf       	out	0x3e, r29	; 62

000000c0 <__do_clear_bss>:
      c0:	28 e2       	ldi	r18, 0x28	; 40
      c2:	a4 e0       	ldi	r26, 0x04	; 4
      c4:	b8 e2       	ldi	r27, 0x28	; 40
      c6:	01 c0       	rjmp	.+2      	; 0xca <.do_clear_bss_start>

000000c8 <.do_clear_bss_loop>:
      c8:	1d 92       	st	X+, r1

000000ca <.do_clear_bss_start>:
      ca:	af 39       	cpi	r26, 0x9F	; 159
      cc:	b2 07       	cpc	r27, r18
      ce:	e1 f7       	brne	.-8      	; 0xc8 <.do_clear_bss_loop>

000000d0 <__do_copy_data>:
      d0:	18 e2       	ldi	r17, 0x28	; 40
      d2:	a0 e0       	ldi	r26, 0x00	; 0
      d4:	b8 e2       	ldi	r27, 0x28	; 40
      d6:	e1 e5       	ldi	r30, 0x51	; 81
      d8:	f6 e1       	ldi	r31, 0x16	; 22
      da:	02 c0       	rjmp	.+4      	; 0xe0 <__do_copy_data+0x10>
      dc:	05 90       	lpm	r0, Z+
      de:	0d 92       	st	X+, r0
      e0:	a4 30       	cpi	r26, 0x04	; 4
      e2:	b1 07       	cpc	r27, r17
      e4:	d9 f7       	brne	.-10     	; 0xdc <__do_copy_data+0xc>

000000e6 <__do_global_ctors>:
      e6:	10 e0       	ldi	r17, 0x00	; 0
      e8:	c9 e5       	ldi	r28, 0x59	; 89
      ea:	d0 e0       	ldi	r29, 0x00	; 0
      ec:	04 c0       	rjmp	.+8      	; 0xf6 <__do_global_ctors+0x10>
      ee:	21 97       	sbiw	r28, 0x01	; 1
      f0:	fe 01       	movw	r30, r28
      f2:	0e 94 55 0a 	call	0x14aa	; 0x14aa <__tablejump2__>
      f6:	c8 35       	cpi	r28, 0x58	; 88
      f8:	d1 07       	cpc	r29, r17
      fa:	c9 f7       	brne	.-14     	; 0xee <__do_global_ctors+0x8>
      fc:	0e 94 b0 04 	call	0x960	; 0x960 <main>
     100:	0c 94 f8 0a 	jmp	0x15f0	; 0x15f0 <__do_global_dtors>

00000104 <__bad_interrupt>:
     104:	0c 94 00 00 	jmp	0	; 0x0 <__vectors>

00000108 <_ZN4User6String10num_to_strEhhPc.part.0>:
     108:	cf 92       	push	r12
     10a:	df 92       	push	r13
     10c:	ef 92       	push	r14
     10e:	ff 92       	push	r15
     110:	0f 93       	push	r16
     112:	1f 93       	push	r17
     114:	cf 93       	push	r28
     116:	df 93       	push	r29
     118:	00 d0       	rcall	.+0      	; 0x11a <_ZN4User6String10num_to_strEhhPc.part.0+0x12>
     11a:	1f 92       	push	r1
     11c:	cd b7       	in	r28, 0x3d	; 61
     11e:	de b7       	in	r29, 0x3e	; 62
     120:	a8 2f       	mov	r26, r24
     122:	c0 90 0a 56 	lds	r12, 0x560A	; 0x80560a <__bss_end+0x2d6b>
     126:	d0 90 0b 56 	lds	r13, 0x560B	; 0x80560b <__bss_end+0x2d6c>
     12a:	e0 90 0c 56 	lds	r14, 0x560C	; 0x80560c <__bss_end+0x2d6d>
     12e:	c9 82       	std	Y+1, r12	; 0x01
     130:	da 82       	std	Y+2, r13	; 0x02
     132:	eb 82       	std	Y+3, r14	; 0x03
     134:	8e 01       	movw	r16, r28
     136:	0f 5f       	subi	r16, 0xFF	; 255
     138:	1f 4f       	sbci	r17, 0xFF	; 255
     13a:	71 e0       	ldi	r23, 0x01	; 1
     13c:	20 e0       	ldi	r18, 0x00	; 0
     13e:	30 e0       	ldi	r19, 0x00	; 0
     140:	e6 2f       	mov	r30, r22
     142:	f0 e0       	ldi	r31, 0x00	; 0
     144:	6f 01       	movw	r12, r30
     146:	81 e0       	ldi	r24, 0x01	; 1
     148:	c8 1a       	sub	r12, r24
     14a:	d1 08       	sbc	r13, r1
     14c:	80 e3       	ldi	r24, 0x30	; 48
     14e:	f8 2e       	mov	r15, r24
     150:	f8 01       	movw	r30, r16
     152:	b1 91       	ld	r27, Z+
     154:	8f 01       	movw	r16, r30
     156:	ab 17       	cp	r26, r27
     158:	c8 f0       	brcs	.+50     	; 0x18c <_ZN4User6String10num_to_strEhhPc.part.0+0x84>
     15a:	8a 2f       	mov	r24, r26
     15c:	6b 2f       	mov	r22, r27
     15e:	0e 94 ff 09 	call	0x13fe	; 0x13fe <__udivmodqi4>
     162:	62 2f       	mov	r22, r18
     164:	70 e0       	ldi	r23, 0x00	; 0
     166:	6c 15       	cp	r22, r12
     168:	7d 05       	cpc	r23, r13
     16a:	24 f0       	brlt	.+8      	; 0x174 <_ZN4User6String10num_to_strEhhPc.part.0+0x6c>
     16c:	fa 01       	movw	r30, r20
     16e:	10 82       	st	Z, r1
     170:	80 e0       	ldi	r24, 0x00	; 0
     172:	22 c0       	rjmp	.+68     	; 0x1b8 <_ZN4User6String10num_to_strEhhPc.part.0+0xb0>
     174:	64 0f       	add	r22, r20
     176:	75 1f       	adc	r23, r21
     178:	90 e3       	ldi	r25, 0x30	; 48
     17a:	98 0f       	add	r25, r24
     17c:	fb 01       	movw	r30, r22
     17e:	90 83       	st	Z, r25
     180:	b8 9f       	mul	r27, r24
     182:	a0 19       	sub	r26, r0
     184:	11 24       	eor	r1, r1
     186:	2f 5f       	subi	r18, 0xFF	; 255
     188:	70 e0       	ldi	r23, 0x00	; 0
     18a:	0e c0       	rjmp	.+28     	; 0x1a8 <_ZN4User6String10num_to_strEhhPc.part.0+0xa0>
     18c:	77 23       	and	r23, r23
     18e:	11 f0       	breq	.+4      	; 0x194 <_ZN4User6String10num_to_strEhhPc.part.0+0x8c>
     190:	32 30       	cpi	r19, 0x02	; 2
     192:	51 f4       	brne	.+20     	; 0x1a8 <_ZN4User6String10num_to_strEhhPc.part.0+0xa0>
     194:	82 2f       	mov	r24, r18
     196:	90 e0       	ldi	r25, 0x00	; 0
     198:	8c 15       	cp	r24, r12
     19a:	9d 05       	cpc	r25, r13
     19c:	3c f7       	brge	.-50     	; 0x16c <_ZN4User6String10num_to_strEhhPc.part.0+0x64>
     19e:	84 0f       	add	r24, r20
     1a0:	95 1f       	adc	r25, r21
     1a2:	fc 01       	movw	r30, r24
     1a4:	f0 82       	st	Z, r15
     1a6:	2f 5f       	subi	r18, 0xFF	; 255
     1a8:	3f 5f       	subi	r19, 0xFF	; 255
     1aa:	33 30       	cpi	r19, 0x03	; 3
     1ac:	89 f6       	brne	.-94     	; 0x150 <_ZN4User6String10num_to_strEhhPc.part.0+0x48>
     1ae:	fa 01       	movw	r30, r20
     1b0:	e2 0f       	add	r30, r18
     1b2:	f1 1d       	adc	r31, r1
     1b4:	10 82       	st	Z, r1
     1b6:	82 2f       	mov	r24, r18
     1b8:	23 96       	adiw	r28, 0x03	; 3
     1ba:	cd bf       	out	0x3d, r28	; 61
     1bc:	de bf       	out	0x3e, r29	; 62
     1be:	df 91       	pop	r29
     1c0:	cf 91       	pop	r28
     1c2:	1f 91       	pop	r17
     1c4:	0f 91       	pop	r16
     1c6:	ff 90       	pop	r15
     1c8:	ef 90       	pop	r14
     1ca:	df 90       	pop	r13
     1cc:	cf 90       	pop	r12
     1ce:	08 95       	ret

000001d0 <_ZN4User6String10num_to_strEhhPc>:
     1d0:	41 15       	cp	r20, r1
     1d2:	51 05       	cpc	r21, r1
     1d4:	19 f0       	breq	.+6      	; 0x1dc <_ZN4User6String10num_to_strEhhPc+0xc>
     1d6:	61 11       	cpse	r22, r1
     1d8:	0c 94 84 00 	jmp	0x108	; 0x108 <_ZN4User6String10num_to_strEhhPc.part.0>
     1dc:	80 e0       	ldi	r24, 0x00	; 0
     1de:	08 95       	ret

000001e0 <_ZN4User6String10num_to_strEjhPc>:
     1e0:	af 92       	push	r10
     1e2:	bf 92       	push	r11
     1e4:	cf 92       	push	r12
     1e6:	df 92       	push	r13
     1e8:	ef 92       	push	r14
     1ea:	ff 92       	push	r15
     1ec:	0f 93       	push	r16
     1ee:	1f 93       	push	r17
     1f0:	cf 93       	push	r28
     1f2:	df 93       	push	r29
     1f4:	cd b7       	in	r28, 0x3d	; 61
     1f6:	de b7       	in	r29, 0x3e	; 62
     1f8:	2a 97       	sbiw	r28, 0x0a	; 10
     1fa:	cd bf       	out	0x3d, r28	; 61
     1fc:	de bf       	out	0x3e, r29	; 62
     1fe:	7c 01       	movw	r14, r24
     200:	8a 01       	movw	r16, r20
     202:	41 15       	cp	r20, r1
     204:	51 05       	cpc	r21, r1
     206:	09 f4       	brne	.+2      	; 0x20a <_ZN4User6String10num_to_strEjhPc+0x2a>
     208:	65 c0       	rjmp	.+202    	; 0x2d4 <_ZN4User6String10num_to_strEjhPc+0xf4>
     20a:	66 23       	and	r22, r22
     20c:	09 f4       	brne	.+2      	; 0x210 <_ZN4User6String10num_to_strEjhPc+0x30>
     20e:	62 c0       	rjmp	.+196    	; 0x2d4 <_ZN4User6String10num_to_strEjhPc+0xf4>
     210:	8f ef       	ldi	r24, 0xFF	; 255
     212:	e8 16       	cp	r14, r24
     214:	f1 04       	cpc	r15, r1
     216:	09 f0       	breq	.+2      	; 0x21a <_ZN4User6String10num_to_strEjhPc+0x3a>
     218:	80 f4       	brcc	.+32     	; 0x23a <_ZN4User6String10num_to_strEjhPc+0x5a>
     21a:	8e 2d       	mov	r24, r14
     21c:	2a 96       	adiw	r28, 0x0a	; 10
     21e:	cd bf       	out	0x3d, r28	; 61
     220:	de bf       	out	0x3e, r29	; 62
     222:	df 91       	pop	r29
     224:	cf 91       	pop	r28
     226:	1f 91       	pop	r17
     228:	0f 91       	pop	r16
     22a:	ff 90       	pop	r15
     22c:	ef 90       	pop	r14
     22e:	df 90       	pop	r13
     230:	cf 90       	pop	r12
     232:	bf 90       	pop	r11
     234:	af 90       	pop	r10
     236:	0c 94 e8 00 	jmp	0x1d0	; 0x1d0 <_ZN4User6String10num_to_strEhhPc>
     23a:	8a e0       	ldi	r24, 0x0A	; 10
     23c:	ed e0       	ldi	r30, 0x0D	; 13
     23e:	f6 e5       	ldi	r31, 0x56	; 86
     240:	de 01       	movw	r26, r28
     242:	11 96       	adiw	r26, 0x01	; 1
     244:	01 90       	ld	r0, Z+
     246:	0d 92       	st	X+, r0
     248:	8a 95       	dec	r24
     24a:	e1 f7       	brne	.-8      	; 0x244 <_ZN4User6String10num_to_strEjhPc+0x64>
     24c:	de 01       	movw	r26, r28
     24e:	11 96       	adiw	r26, 0x01	; 1
     250:	6d 01       	movw	r12, r26
     252:	51 e0       	ldi	r21, 0x01	; 1
     254:	20 e0       	ldi	r18, 0x00	; 0
     256:	30 e0       	ldi	r19, 0x00	; 0
     258:	e6 2f       	mov	r30, r22
     25a:	f0 e0       	ldi	r31, 0x00	; 0
     25c:	31 97       	sbiw	r30, 0x01	; 1
     25e:	40 e3       	ldi	r20, 0x30	; 48
     260:	d6 01       	movw	r26, r12
     262:	ad 90       	ld	r10, X+
     264:	bd 90       	ld	r11, X+
     266:	6d 01       	movw	r12, r26
     268:	ea 14       	cp	r14, r10
     26a:	fb 04       	cpc	r15, r11
     26c:	e0 f0       	brcs	.+56     	; 0x2a6 <_ZN4User6String10num_to_strEjhPc+0xc6>
     26e:	c7 01       	movw	r24, r14
     270:	b5 01       	movw	r22, r10
     272:	0e 94 0b 0a 	call	0x1416	; 0x1416 <__udivmodhi4>
     276:	82 2f       	mov	r24, r18
     278:	90 e0       	ldi	r25, 0x00	; 0
     27a:	8e 17       	cp	r24, r30
     27c:	9f 07       	cpc	r25, r31
     27e:	1c f0       	brlt	.+6      	; 0x286 <_ZN4User6String10num_to_strEjhPc+0xa6>
     280:	f8 01       	movw	r30, r16
     282:	10 82       	st	Z, r1
     284:	27 c0       	rjmp	.+78     	; 0x2d4 <_ZN4User6String10num_to_strEjhPc+0xf4>
     286:	d8 01       	movw	r26, r16
     288:	a8 0f       	add	r26, r24
     28a:	b9 1f       	adc	r27, r25
     28c:	50 e3       	ldi	r21, 0x30	; 48
     28e:	56 0f       	add	r21, r22
     290:	5c 93       	st	X, r21
     292:	6a 9d       	mul	r22, r10
     294:	c0 01       	movw	r24, r0
     296:	6b 9d       	mul	r22, r11
     298:	90 0d       	add	r25, r0
     29a:	11 24       	eor	r1, r1
     29c:	e8 1a       	sub	r14, r24
     29e:	f9 0a       	sbc	r15, r25
     2a0:	2f 5f       	subi	r18, 0xFF	; 255
     2a2:	50 e0       	ldi	r21, 0x00	; 0
     2a4:	0e c0       	rjmp	.+28     	; 0x2c2 <_ZN4User6String10num_to_strEjhPc+0xe2>
     2a6:	55 23       	and	r21, r21
     2a8:	11 f0       	breq	.+4      	; 0x2ae <_ZN4User6String10num_to_strEjhPc+0xce>
     2aa:	34 30       	cpi	r19, 0x04	; 4
     2ac:	51 f4       	brne	.+20     	; 0x2c2 <_ZN4User6String10num_to_strEjhPc+0xe2>
     2ae:	82 2f       	mov	r24, r18
     2b0:	90 e0       	ldi	r25, 0x00	; 0
     2b2:	8e 17       	cp	r24, r30
     2b4:	9f 07       	cpc	r25, r31
     2b6:	24 f7       	brge	.-56     	; 0x280 <_ZN4User6String10num_to_strEjhPc+0xa0>
     2b8:	d8 01       	movw	r26, r16
     2ba:	a8 0f       	add	r26, r24
     2bc:	b9 1f       	adc	r27, r25
     2be:	4c 93       	st	X, r20
     2c0:	2f 5f       	subi	r18, 0xFF	; 255
     2c2:	3f 5f       	subi	r19, 0xFF	; 255
     2c4:	35 30       	cpi	r19, 0x05	; 5
     2c6:	61 f6       	brne	.-104    	; 0x260 <_ZN4User6String10num_to_strEjhPc+0x80>
     2c8:	f8 01       	movw	r30, r16
     2ca:	e2 0f       	add	r30, r18
     2cc:	f1 1d       	adc	r31, r1
     2ce:	10 82       	st	Z, r1
     2d0:	82 2f       	mov	r24, r18
     2d2:	01 c0       	rjmp	.+2      	; 0x2d6 <_ZN4User6String10num_to_strEjhPc+0xf6>
     2d4:	80 e0       	ldi	r24, 0x00	; 0
     2d6:	2a 96       	adiw	r28, 0x0a	; 10
     2d8:	cd bf       	out	0x3d, r28	; 61
     2da:	de bf       	out	0x3e, r29	; 62
     2dc:	df 91       	pop	r29
     2de:	cf 91       	pop	r28
     2e0:	1f 91       	pop	r17
     2e2:	0f 91       	pop	r16
     2e4:	ff 90       	pop	r15
     2e6:	ef 90       	pop	r14
     2e8:	df 90       	pop	r13
     2ea:	cf 90       	pop	r12
     2ec:	bf 90       	pop	r11
     2ee:	af 90       	pop	r10
     2f0:	08 95       	ret

000002f2 <_Z12lcd_send_cmdh>:
     2f2:	e0 e2       	ldi	r30, 0x20	; 32
     2f4:	f4 e0       	ldi	r31, 0x04	; 4
     2f6:	94 81       	ldd	r25, Z+4	; 0x04
     2f8:	90 7f       	andi	r25, 0xF0	; 240
     2fa:	28 2f       	mov	r18, r24
     2fc:	22 95       	swap	r18
     2fe:	2f 70       	andi	r18, 0x0F	; 15
     300:	92 2b       	or	r25, r18
     302:	94 83       	std	Z+4, r25	; 0x04
     304:	94 81       	ldd	r25, Z+4	; 0x04
     306:	9f 7d       	andi	r25, 0xDF	; 223
     308:	94 83       	std	Z+4, r25	; 0x04
     30a:	94 81       	ldd	r25, Z+4	; 0x04
     30c:	90 61       	ori	r25, 0x10	; 16
     30e:	94 83       	std	Z+4, r25	; 0x04
     310:	a7 ee       	ldi	r26, 0xE7	; 231
     312:	b3 e0       	ldi	r27, 0x03	; 3
     314:	11 97       	sbiw	r26, 0x01	; 1
     316:	f1 f7       	brne	.-4      	; 0x314 <_Z12lcd_send_cmdh+0x22>
     318:	00 c0       	rjmp	.+0      	; 0x31a <_Z12lcd_send_cmdh+0x28>
     31a:	00 00       	nop
     31c:	94 81       	ldd	r25, Z+4	; 0x04
     31e:	9f 7e       	andi	r25, 0xEF	; 239
     320:	94 83       	std	Z+4, r25	; 0x04
     322:	a7 ee       	ldi	r26, 0xE7	; 231
     324:	b3 e0       	ldi	r27, 0x03	; 3
     326:	11 97       	sbiw	r26, 0x01	; 1
     328:	f1 f7       	brne	.-4      	; 0x326 <_Z12lcd_send_cmdh+0x34>
     32a:	00 c0       	rjmp	.+0      	; 0x32c <_Z12lcd_send_cmdh+0x3a>
     32c:	00 00       	nop
     32e:	94 81       	ldd	r25, Z+4	; 0x04
     330:	90 7f       	andi	r25, 0xF0	; 240
     332:	8f 70       	andi	r24, 0x0F	; 15
     334:	89 2b       	or	r24, r25
     336:	84 83       	std	Z+4, r24	; 0x04
     338:	84 81       	ldd	r24, Z+4	; 0x04
     33a:	80 61       	ori	r24, 0x10	; 16
     33c:	84 83       	std	Z+4, r24	; 0x04
     33e:	87 ee       	ldi	r24, 0xE7	; 231
     340:	93 e0       	ldi	r25, 0x03	; 3
     342:	01 97       	sbiw	r24, 0x01	; 1
     344:	f1 f7       	brne	.-4      	; 0x342 <_Z12lcd_send_cmdh+0x50>
     346:	00 c0       	rjmp	.+0      	; 0x348 <_Z12lcd_send_cmdh+0x56>
     348:	00 00       	nop
     34a:	84 81       	ldd	r24, Z+4	; 0x04
     34c:	8f 7e       	andi	r24, 0xEF	; 239
     34e:	84 83       	std	Z+4, r24	; 0x04
     350:	a7 ee       	ldi	r26, 0xE7	; 231
     352:	b3 e0       	ldi	r27, 0x03	; 3
     354:	11 97       	sbiw	r26, 0x01	; 1
     356:	f1 f7       	brne	.-4      	; 0x354 <_Z12lcd_send_cmdh+0x62>
     358:	00 c0       	rjmp	.+0      	; 0x35a <_Z12lcd_send_cmdh+0x68>
     35a:	00 00       	nop
     35c:	8f e0       	ldi	r24, 0x0F	; 15
     35e:	97 e2       	ldi	r25, 0x27	; 39
     360:	01 97       	sbiw	r24, 0x01	; 1
     362:	f1 f7       	brne	.-4      	; 0x360 <_Z12lcd_send_cmdh+0x6e>
     364:	00 c0       	rjmp	.+0      	; 0x366 <_Z12lcd_send_cmdh+0x74>
     366:	00 00       	nop
     368:	08 95       	ret

0000036a <_Z8lcd_initv>:
     36a:	82 e0       	ldi	r24, 0x02	; 2
     36c:	0e 94 79 01 	call	0x2f2	; 0x2f2 <_Z12lcd_send_cmdh>
     370:	88 e2       	ldi	r24, 0x28	; 40
     372:	0e 94 79 01 	call	0x2f2	; 0x2f2 <_Z12lcd_send_cmdh>
     376:	81 e0       	ldi	r24, 0x01	; 1
     378:	0e 94 79 01 	call	0x2f2	; 0x2f2 <_Z12lcd_send_cmdh>
     37c:	8c e0       	ldi	r24, 0x0C	; 12
     37e:	0e 94 79 01 	call	0x2f2	; 0x2f2 <_Z12lcd_send_cmdh>
     382:	ed e0       	ldi	r30, 0x0D	; 13
     384:	f8 e2       	ldi	r31, 0x28	; 40
     386:	80 e2       	ldi	r24, 0x20	; 32
     388:	81 93       	st	Z+, r24
     38a:	98 e2       	ldi	r25, 0x28	; 40
     38c:	ed 32       	cpi	r30, 0x2D	; 45
     38e:	f9 07       	cpc	r31, r25
     390:	d9 f7       	brne	.-10     	; 0x388 <_Z8lcd_initv+0x1e>
     392:	10 92 09 28 	sts	0x2809, r1	; 0x802809 <lcd_updt>
     396:	10 92 0a 28 	sts	0x280A, r1	; 0x80280a <lcd_updt+0x1>
     39a:	10 92 0b 28 	sts	0x280B, r1	; 0x80280b <lcd_updt+0x2>
     39e:	10 92 0c 28 	sts	0x280C, r1	; 0x80280c <lcd_updt+0x3>
     3a2:	10 92 08 28 	sts	0x2808, r1	; 0x802808 <lcd_cfg_flags>
     3a6:	10 92 07 28 	sts	0x2807, r1	; 0x802807 <lcd_error>
     3aa:	08 95       	ret

000003ac <_Z10lcd_updatev>:
     3ac:	80 91 05 28 	lds	r24, 0x2805	; 0x802805 <_ZZ10lcd_updatevE6status>
     3b0:	28 2f       	mov	r18, r24
     3b2:	22 95       	swap	r18
     3b4:	26 95       	lsr	r18
     3b6:	23 70       	andi	r18, 0x03	; 3
     3b8:	98 2f       	mov	r25, r24
     3ba:	9f 71       	andi	r25, 0x1F	; 31
     3bc:	21 11       	cpse	r18, r1
     3be:	91 c0       	rjmp	.+290    	; 0x4e2 <__LOCK_REGION_LENGTH__+0xe2>
     3c0:	78 2f       	mov	r23, r24
     3c2:	77 70       	andi	r23, 0x07	; 7
     3c4:	88 71       	andi	r24, 0x18	; 24
     3c6:	28 2f       	mov	r18, r24
     3c8:	30 e0       	ldi	r19, 0x00	; 0
     3ca:	43 e0       	ldi	r20, 0x03	; 3
     3cc:	35 95       	asr	r19
     3ce:	27 95       	ror	r18
     3d0:	4a 95       	dec	r20
     3d2:	e1 f7       	brne	.-8      	; 0x3cc <_Z10lcd_updatev+0x20>
     3d4:	f9 01       	movw	r30, r18
     3d6:	e7 5f       	subi	r30, 0xF7	; 247
     3d8:	f7 4d       	sbci	r31, 0xD7	; 215
     3da:	60 81       	ld	r22, Z
     3dc:	4f ef       	ldi	r20, 0xFF	; 255
     3de:	50 e0       	ldi	r21, 0x00	; 0
     3e0:	07 2e       	mov	r0, r23
     3e2:	01 c0       	rjmp	.+2      	; 0x3e6 <_Z10lcd_updatev+0x3a>
     3e4:	44 0f       	add	r20, r20
     3e6:	0a 94       	dec	r0
     3e8:	ea f7       	brpl	.-6      	; 0x3e4 <_Z10lcd_updatev+0x38>
     3ea:	46 23       	and	r20, r22
     3ec:	91 f0       	breq	.+36     	; 0x412 <__LOCK_REGION_LENGTH__+0x12>
     3ee:	81 e0       	ldi	r24, 0x01	; 1
     3f0:	01 c0       	rjmp	.+2      	; 0x3f4 <_Z10lcd_updatev+0x48>
     3f2:	88 0f       	add	r24, r24
     3f4:	7a 95       	dec	r23
     3f6:	ea f7       	brpl	.-6      	; 0x3f2 <_Z10lcd_updatev+0x46>
     3f8:	20 91 07 28 	lds	r18, 0x2807	; 0x802807 <lcd_error>
     3fc:	36 2f       	mov	r19, r22
     3fe:	38 23       	and	r19, r24
     400:	19 f0       	breq	.+6      	; 0x408 <__LOCK_REGION_LENGTH__+0x8>
     402:	20 93 07 28 	sts	0x2807, r18	; 0x802807 <lcd_error>
     406:	35 c0       	rjmp	.+106    	; 0x472 <__LOCK_REGION_LENGTH__+0x72>
     408:	9f 5f       	subi	r25, 0xFF	; 255
     40a:	88 0f       	add	r24, r24
     40c:	b9 f7       	brne	.-18     	; 0x3fc <_Z10lcd_updatev+0x50>
     40e:	23 e6       	ldi	r18, 0x63	; 99
     410:	f8 cf       	rjmp	.-16     	; 0x402 <__LOCK_REGION_LENGTH__+0x2>
     412:	94 e0       	ldi	r25, 0x04	; 4
     414:	62 2f       	mov	r22, r18
     416:	70 e0       	ldi	r23, 0x00	; 0
     418:	fb 01       	movw	r30, r22
     41a:	e7 5f       	subi	r30, 0xF7	; 247
     41c:	f7 4d       	sbci	r31, 0xD7	; 215
     41e:	40 81       	ld	r20, Z
     420:	44 23       	and	r20, r20
     422:	31 f0       	breq	.+12     	; 0x430 <__LOCK_REGION_LENGTH__+0x30>
     424:	30 91 07 28 	lds	r19, 0x2807	; 0x802807 <lcd_error>
     428:	98 e0       	ldi	r25, 0x08	; 8
     42a:	98 0f       	add	r25, r24
     42c:	21 e0       	ldi	r18, 0x01	; 1
     42e:	16 c0       	rjmp	.+44     	; 0x45c <__LOCK_REGION_LENGTH__+0x5c>
     430:	63 30       	cpi	r22, 0x03	; 3
     432:	71 05       	cpc	r23, r1
     434:	14 f4       	brge	.+4      	; 0x43a <__LOCK_REGION_LENGTH__+0x3a>
     436:	2f 5f       	subi	r18, 0xFF	; 255
     438:	01 c0       	rjmp	.+2      	; 0x43c <__LOCK_REGION_LENGTH__+0x3c>
     43a:	20 e0       	ldi	r18, 0x00	; 0
     43c:	48 2f       	mov	r20, r24
     43e:	50 e0       	ldi	r21, 0x00	; 0
     440:	48 31       	cpi	r20, 0x18	; 24
     442:	51 05       	cpc	r21, r1
     444:	14 f0       	brlt	.+4      	; 0x44a <__LOCK_REGION_LENGTH__+0x4a>
     446:	88 51       	subi	r24, 0x18	; 24
     448:	01 c0       	rjmp	.+2      	; 0x44c <__LOCK_REGION_LENGTH__+0x4c>
     44a:	88 5f       	subi	r24, 0xF8	; 248
     44c:	91 50       	subi	r25, 0x01	; 1
     44e:	11 f7       	brne	.-60     	; 0x414 <__LOCK_REGION_LENGTH__+0x14>
     450:	08 95       	ret
     452:	22 0f       	add	r18, r18
     454:	8f 5f       	subi	r24, 0xFF	; 255
     456:	21 11       	cpse	r18, r1
     458:	01 c0       	rjmp	.+2      	; 0x45c <__LOCK_REGION_LENGTH__+0x5c>
     45a:	33 e6       	ldi	r19, 0x63	; 99
     45c:	98 13       	cpse	r25, r24
     45e:	03 c0       	rjmp	.+6      	; 0x466 <__LOCK_REGION_LENGTH__+0x66>
     460:	30 93 07 28 	sts	0x2807, r19	; 0x802807 <lcd_error>
     464:	06 c0       	rjmp	.+12     	; 0x472 <__LOCK_REGION_LENGTH__+0x72>
     466:	54 2f       	mov	r21, r20
     468:	52 23       	and	r21, r18
     46a:	99 f3       	breq	.-26     	; 0x452 <__LOCK_REGION_LENGTH__+0x52>
     46c:	30 93 07 28 	sts	0x2807, r19	; 0x802807 <lcd_error>
     470:	98 2f       	mov	r25, r24
     472:	29 2f       	mov	r18, r25
     474:	2f 70       	andi	r18, 0x0F	; 15
     476:	80 91 05 28 	lds	r24, 0x2805	; 0x802805 <_ZZ10lcd_updatevE6status>
     47a:	22 23       	and	r18, r18
     47c:	a1 f0       	breq	.+40     	; 0x4a6 <__LOCK_REGION_LENGTH__+0xa6>
     47e:	30 91 06 28 	lds	r19, 0x2806	; 0x802806 <_ZZ10lcd_updatevE6status+0x1>
     482:	36 95       	lsr	r19
     484:	3f 71       	andi	r19, 0x1F	; 31
     486:	93 13       	cpse	r25, r19
     488:	0e c0       	rjmp	.+28     	; 0x4a6 <__LOCK_REGION_LENGTH__+0xa6>
     48a:	8f 77       	andi	r24, 0x7F	; 127
     48c:	80 93 05 28 	sts	0x2805, r24	; 0x802805 <_ZZ10lcd_updatevE6status>
     490:	e9 2f       	mov	r30, r25
     492:	f0 e0       	ldi	r31, 0x00	; 0
     494:	e3 5f       	subi	r30, 0xF3	; 243
     496:	f7 4d       	sbci	r31, 0xD7	; 215
     498:	80 81       	ld	r24, Z
     49a:	80 93 04 28 	sts	0x2804, r24	; 0x802804 <__data_end>
     49e:	20 91 24 04 	lds	r18, 0x0424	; 0x800424 <__TEXT_REGION_LENGTH__+0x7f4424>
     4a2:	20 62       	ori	r18, 0x20	; 32
     4a4:	0e c0       	rjmp	.+28     	; 0x4c2 <__LOCK_REGION_LENGTH__+0xc2>
     4a6:	80 68       	ori	r24, 0x80	; 128
     4a8:	80 93 05 28 	sts	0x2805, r24	; 0x802805 <_ZZ10lcd_updatevE6status>
     4ac:	89 2f       	mov	r24, r25
     4ae:	80 71       	andi	r24, 0x10	; 16
     4b0:	88 0f       	add	r24, r24
     4b2:	88 0f       	add	r24, r24
     4b4:	20 68       	ori	r18, 0x80	; 128
     4b6:	82 2b       	or	r24, r18
     4b8:	80 93 04 28 	sts	0x2804, r24	; 0x802804 <__data_end>
     4bc:	20 91 24 04 	lds	r18, 0x0424	; 0x800424 <__TEXT_REGION_LENGTH__+0x7f4424>
     4c0:	2f 7d       	andi	r18, 0xDF	; 223
     4c2:	20 93 24 04 	sts	0x0424, r18	; 0x800424 <__TEXT_REGION_LENGTH__+0x7f4424>
     4c6:	20 91 06 28 	lds	r18, 0x2806	; 0x802806 <_ZZ10lcd_updatevE6status+0x1>
     4ca:	21 60       	ori	r18, 0x01	; 1
     4cc:	20 93 06 28 	sts	0x2806, r18	; 0x802806 <_ZZ10lcd_updatevE6status+0x1>
     4d0:	20 91 24 04 	lds	r18, 0x0424	; 0x800424 <__TEXT_REGION_LENGTH__+0x7f4424>
     4d4:	20 7f       	andi	r18, 0xF0	; 240
     4d6:	82 95       	swap	r24
     4d8:	8f 70       	andi	r24, 0x0F	; 15
     4da:	82 2b       	or	r24, r18
     4dc:	80 93 24 04 	sts	0x0424, r24	; 0x800424 <__TEXT_REGION_LENGTH__+0x7f4424>
     4e0:	88 c0       	rjmp	.+272    	; 0x5f2 <__LOCK_REGION_LENGTH__+0x1f2>
     4e2:	21 30       	cpi	r18, 0x01	; 1
     4e4:	39 f4       	brne	.+14     	; 0x4f4 <__LOCK_REGION_LENGTH__+0xf4>
     4e6:	80 91 24 04 	lds	r24, 0x0424	; 0x800424 <__TEXT_REGION_LENGTH__+0x7f4424>
     4ea:	80 61       	ori	r24, 0x10	; 16
     4ec:	80 93 24 04 	sts	0x0424, r24	; 0x800424 <__TEXT_REGION_LENGTH__+0x7f4424>
     4f0:	82 e0       	ldi	r24, 0x02	; 2
     4f2:	82 c0       	rjmp	.+260    	; 0x5f8 <__LOCK_REGION_LENGTH__+0x1f8>
     4f4:	22 30       	cpi	r18, 0x02	; 2
     4f6:	79 f4       	brne	.+30     	; 0x516 <__LOCK_REGION_LENGTH__+0x116>
     4f8:	80 91 24 04 	lds	r24, 0x0424	; 0x800424 <__TEXT_REGION_LENGTH__+0x7f4424>
     4fc:	8f 7e       	andi	r24, 0xEF	; 239
     4fe:	80 93 24 04 	sts	0x0424, r24	; 0x800424 <__TEXT_REGION_LENGTH__+0x7f4424>
     502:	80 91 05 28 	lds	r24, 0x2805	; 0x802805 <_ZZ10lcd_updatevE6status>
     506:	87 fd       	sbrc	r24, 7
     508:	76 c0       	rjmp	.+236    	; 0x5f6 <__LOCK_REGION_LENGTH__+0x1f6>
     50a:	80 91 06 28 	lds	r24, 0x2806	; 0x802806 <_ZZ10lcd_updatevE6status+0x1>
     50e:	80 fd       	sbrc	r24, 0
     510:	72 c0       	rjmp	.+228    	; 0x5f6 <__LOCK_REGION_LENGTH__+0x1f6>
     512:	80 e0       	ldi	r24, 0x00	; 0
     514:	71 c0       	rjmp	.+226    	; 0x5f8 <__LOCK_REGION_LENGTH__+0x1f8>
     516:	20 91 06 28 	lds	r18, 0x2806	; 0x802806 <_ZZ10lcd_updatevE6status+0x1>
     51a:	87 ff       	sbrs	r24, 7
     51c:	2a c0       	rjmp	.+84     	; 0x572 <__LOCK_REGION_LENGTH__+0x172>
     51e:	20 ff       	sbrs	r18, 0
     520:	13 c0       	rjmp	.+38     	; 0x548 <__LOCK_REGION_LENGTH__+0x148>
     522:	2e 7f       	andi	r18, 0xFE	; 254
     524:	20 93 06 28 	sts	0x2806, r18	; 0x802806 <_ZZ10lcd_updatevE6status+0x1>
     528:	80 91 24 04 	lds	r24, 0x0424	; 0x800424 <__TEXT_REGION_LENGTH__+0x7f4424>
     52c:	30 91 04 28 	lds	r19, 0x2804	; 0x802804 <__data_end>
     530:	3f 70       	andi	r19, 0x0F	; 15
     532:	80 7f       	andi	r24, 0xF0	; 240
     534:	83 2b       	or	r24, r19
     536:	80 93 24 04 	sts	0x0424, r24	; 0x800424 <__TEXT_REGION_LENGTH__+0x7f4424>
     53a:	21 7c       	andi	r18, 0xC1	; 193
     53c:	89 2f       	mov	r24, r25
     53e:	88 0f       	add	r24, r24
     540:	28 2b       	or	r18, r24
     542:	20 93 06 28 	sts	0x2806, r18	; 0x802806 <_ZZ10lcd_updatevE6status+0x1>
     546:	55 c0       	rjmp	.+170    	; 0x5f2 <__LOCK_REGION_LENGTH__+0x1f2>
     548:	80 91 24 04 	lds	r24, 0x0424	; 0x800424 <__TEXT_REGION_LENGTH__+0x7f4424>
     54c:	80 62       	ori	r24, 0x20	; 32
     54e:	80 93 24 04 	sts	0x0424, r24	; 0x800424 <__TEXT_REGION_LENGTH__+0x7f4424>
     552:	80 91 05 28 	lds	r24, 0x2805	; 0x802805 <_ZZ10lcd_updatevE6status>
     556:	8f 77       	andi	r24, 0x7F	; 127
     558:	80 93 05 28 	sts	0x2805, r24	; 0x802805 <_ZZ10lcd_updatevE6status>
     55c:	21 60       	ori	r18, 0x01	; 1
     55e:	20 93 06 28 	sts	0x2806, r18	; 0x802806 <_ZZ10lcd_updatevE6status+0x1>
     562:	e9 2f       	mov	r30, r25
     564:	f0 e0       	ldi	r31, 0x00	; 0
     566:	e3 5f       	subi	r30, 0xF3	; 243
     568:	f7 4d       	sbci	r31, 0xD7	; 215
     56a:	80 81       	ld	r24, Z
     56c:	80 93 04 28 	sts	0x2804, r24	; 0x802804 <__data_end>
     570:	af cf       	rjmp	.-162    	; 0x4d0 <__LOCK_REGION_LENGTH__+0xd0>
     572:	20 ff       	sbrs	r18, 0
     574:	3b c0       	rjmp	.+118    	; 0x5ec <__LOCK_REGION_LENGTH__+0x1ec>
     576:	2e 7f       	andi	r18, 0xFE	; 254
     578:	20 93 06 28 	sts	0x2806, r18	; 0x802806 <_ZZ10lcd_updatevE6status+0x1>
     57c:	40 91 04 28 	lds	r20, 0x2804	; 0x802804 <__data_end>
     580:	20 91 24 04 	lds	r18, 0x0424	; 0x800424 <__TEXT_REGION_LENGTH__+0x7f4424>
     584:	20 7f       	andi	r18, 0xF0	; 240
     586:	34 2f       	mov	r19, r20
     588:	3f 70       	andi	r19, 0x0F	; 15
     58a:	23 2b       	or	r18, r19
     58c:	20 93 24 04 	sts	0x0424, r18	; 0x800424 <__TEXT_REGION_LENGTH__+0x7f4424>
     590:	e9 2f       	mov	r30, r25
     592:	f0 e0       	ldi	r31, 0x00	; 0
     594:	e3 5f       	subi	r30, 0xF3	; 243
     596:	f7 4d       	sbci	r31, 0xD7	; 215
     598:	20 81       	ld	r18, Z
     59a:	42 13       	cpse	r20, r18
     59c:	15 c0       	rjmp	.+42     	; 0x5c8 <__LOCK_REGION_LENGTH__+0x1c8>
     59e:	e8 2f       	mov	r30, r24
     5a0:	e8 71       	andi	r30, 0x18	; 24
     5a2:	f0 e0       	ldi	r31, 0x00	; 0
     5a4:	23 e0       	ldi	r18, 0x03	; 3
     5a6:	f5 95       	asr	r31
     5a8:	e7 95       	ror	r30
     5aa:	2a 95       	dec	r18
     5ac:	e1 f7       	brne	.-8      	; 0x5a6 <__LOCK_REGION_LENGTH__+0x1a6>
     5ae:	e7 5f       	subi	r30, 0xF7	; 247
     5b0:	f7 4d       	sbci	r31, 0xD7	; 215
     5b2:	87 70       	andi	r24, 0x07	; 7
     5b4:	21 e0       	ldi	r18, 0x01	; 1
     5b6:	30 e0       	ldi	r19, 0x00	; 0
     5b8:	01 c0       	rjmp	.+2      	; 0x5bc <__LOCK_REGION_LENGTH__+0x1bc>
     5ba:	22 0f       	add	r18, r18
     5bc:	8a 95       	dec	r24
     5be:	ea f7       	brpl	.-6      	; 0x5ba <__LOCK_REGION_LENGTH__+0x1ba>
     5c0:	20 95       	com	r18
     5c2:	80 81       	ld	r24, Z
     5c4:	28 23       	and	r18, r24
     5c6:	20 83       	st	Z, r18
     5c8:	80 91 06 28 	lds	r24, 0x2806	; 0x802806 <_ZZ10lcd_updatevE6status+0x1>
     5cc:	86 95       	lsr	r24
     5ce:	8f 71       	andi	r24, 0x1F	; 31
     5d0:	8f 31       	cpi	r24, 0x1F	; 31
     5d2:	11 f0       	breq	.+4      	; 0x5d8 <__LOCK_REGION_LENGTH__+0x1d8>
     5d4:	8f 5f       	subi	r24, 0xFF	; 255
     5d6:	01 c0       	rjmp	.+2      	; 0x5da <__LOCK_REGION_LENGTH__+0x1da>
     5d8:	80 e0       	ldi	r24, 0x00	; 0
     5da:	8f 71       	andi	r24, 0x1F	; 31
     5dc:	88 0f       	add	r24, r24
     5de:	20 91 06 28 	lds	r18, 0x2806	; 0x802806 <_ZZ10lcd_updatevE6status+0x1>
     5e2:	21 7c       	andi	r18, 0xC1	; 193
     5e4:	82 2b       	or	r24, r18
     5e6:	80 93 06 28 	sts	0x2806, r24	; 0x802806 <_ZZ10lcd_updatevE6status+0x1>
     5ea:	03 c0       	rjmp	.+6      	; 0x5f2 <__LOCK_REGION_LENGTH__+0x1f2>
     5ec:	83 e6       	ldi	r24, 0x63	; 99
     5ee:	80 93 07 28 	sts	0x2807, r24	; 0x802807 <lcd_error>
     5f2:	81 e0       	ldi	r24, 0x01	; 1
     5f4:	01 c0       	rjmp	.+2      	; 0x5f8 <__LOCK_REGION_LENGTH__+0x1f8>
     5f6:	83 e0       	ldi	r24, 0x03	; 3
     5f8:	28 2f       	mov	r18, r24
     5fa:	22 95       	swap	r18
     5fc:	22 0f       	add	r18, r18
     5fe:	20 7e       	andi	r18, 0xE0	; 224
     600:	30 91 05 28 	lds	r19, 0x2805	; 0x802805 <_ZZ10lcd_updatevE6status>
     604:	30 78       	andi	r19, 0x80	; 128
     606:	89 2f       	mov	r24, r25
     608:	8f 71       	andi	r24, 0x1F	; 31
     60a:	93 2f       	mov	r25, r19
     60c:	92 2b       	or	r25, r18
     60e:	98 2b       	or	r25, r24
     610:	90 93 05 28 	sts	0x2805, r25	; 0x802805 <_ZZ10lcd_updatevE6status>
     614:	08 95       	ret

00000616 <_Z14lcd_print_charhh>:
     616:	81 32       	cpi	r24, 0x21	; 33
     618:	20 f0       	brcs	.+8      	; 0x622 <_Z14lcd_print_charhh+0xc>
     61a:	8a e0       	ldi	r24, 0x0A	; 10
     61c:	80 93 07 28 	sts	0x2807, r24	; 0x802807 <lcd_error>
     620:	08 95       	ret
     622:	e8 2f       	mov	r30, r24
     624:	f0 e0       	ldi	r31, 0x00	; 0
     626:	e3 5f       	subi	r30, 0xF3	; 243
     628:	f7 4d       	sbci	r31, 0xD7	; 215
     62a:	90 81       	ld	r25, Z
     62c:	69 17       	cp	r22, r25
     62e:	c1 f0       	breq	.+48     	; 0x660 <_Z14lcd_print_charhh+0x4a>
     630:	60 83       	st	Z, r22
     632:	e8 2f       	mov	r30, r24
     634:	e8 71       	andi	r30, 0x18	; 24
     636:	f0 e0       	ldi	r31, 0x00	; 0
     638:	93 e0       	ldi	r25, 0x03	; 3
     63a:	f5 95       	asr	r31
     63c:	e7 95       	ror	r30
     63e:	9a 95       	dec	r25
     640:	e1 f7       	brne	.-8      	; 0x63a <_Z14lcd_print_charhh+0x24>
     642:	e7 5f       	subi	r30, 0xF7	; 247
     644:	f7 4d       	sbci	r31, 0xD7	; 215
     646:	87 70       	andi	r24, 0x07	; 7
     648:	21 e0       	ldi	r18, 0x01	; 1
     64a:	30 e0       	ldi	r19, 0x00	; 0
     64c:	a9 01       	movw	r20, r18
     64e:	02 c0       	rjmp	.+4      	; 0x654 <_Z14lcd_print_charhh+0x3e>
     650:	44 0f       	add	r20, r20
     652:	55 1f       	adc	r21, r21
     654:	8a 95       	dec	r24
     656:	e2 f7       	brpl	.-8      	; 0x650 <_Z14lcd_print_charhh+0x3a>
     658:	ca 01       	movw	r24, r20
     65a:	90 81       	ld	r25, Z
     65c:	89 2b       	or	r24, r25
     65e:	80 83       	st	Z, r24
     660:	08 95       	ret

00000662 <_Z13lcd_print_strhPKc>:
     662:	ef 92       	push	r14
     664:	ff 92       	push	r15
     666:	0f 93       	push	r16
     668:	1f 93       	push	r17
     66a:	cf 93       	push	r28
     66c:	df 93       	push	r29
     66e:	61 15       	cp	r22, r1
     670:	71 05       	cpc	r23, r1
     672:	c9 f0       	breq	.+50     	; 0x6a6 <_Z13lcd_print_strhPKc+0x44>
     674:	8b 01       	movw	r16, r22
     676:	d8 2f       	mov	r29, r24
     678:	c0 e0       	ldi	r28, 0x00	; 0
     67a:	e8 2e       	mov	r14, r24
     67c:	f1 2c       	mov	r15, r1
     67e:	8c 2f       	mov	r24, r28
     680:	90 e0       	ldi	r25, 0x00	; 0
     682:	97 01       	movw	r18, r14
     684:	28 0f       	add	r18, r24
     686:	39 1f       	adc	r19, r25
     688:	21 32       	cpi	r18, 0x21	; 33
     68a:	31 05       	cpc	r19, r1
     68c:	64 f4       	brge	.+24     	; 0x6a6 <_Z13lcd_print_strhPKc+0x44>
     68e:	f8 01       	movw	r30, r16
     690:	e8 0f       	add	r30, r24
     692:	f9 1f       	adc	r31, r25
     694:	60 81       	ld	r22, Z
     696:	66 23       	and	r22, r22
     698:	31 f0       	breq	.+12     	; 0x6a6 <_Z13lcd_print_strhPKc+0x44>
     69a:	8c 2f       	mov	r24, r28
     69c:	8d 0f       	add	r24, r29
     69e:	0e 94 0b 03 	call	0x616	; 0x616 <_Z14lcd_print_charhh>
     6a2:	cf 5f       	subi	r28, 0xFF	; 255
     6a4:	ec cf       	rjmp	.-40     	; 0x67e <_Z13lcd_print_strhPKc+0x1c>
     6a6:	df 91       	pop	r29
     6a8:	cf 91       	pop	r28
     6aa:	1f 91       	pop	r17
     6ac:	0f 91       	pop	r16
     6ae:	ff 90       	pop	r15
     6b0:	ef 90       	pop	r14
     6b2:	08 95       	ret

000006b4 <_Z13lcd_print_u16hj>:
     6b4:	9f 92       	push	r9
     6b6:	af 92       	push	r10
     6b8:	bf 92       	push	r11
     6ba:	cf 92       	push	r12
     6bc:	df 92       	push	r13
     6be:	ef 92       	push	r14
     6c0:	ff 92       	push	r15
     6c2:	0f 93       	push	r16
     6c4:	1f 93       	push	r17
     6c6:	cf 93       	push	r28
     6c8:	df 93       	push	r29
     6ca:	cd b7       	in	r28, 0x3d	; 61
     6cc:	de b7       	in	r29, 0x3e	; 62
     6ce:	26 97       	sbiw	r28, 0x06	; 6
     6d0:	cd bf       	out	0x3d, r28	; 61
     6d2:	de bf       	out	0x3e, r29	; 62
     6d4:	98 2e       	mov	r9, r24
     6d6:	cb 01       	movw	r24, r22
     6d8:	ae 01       	movw	r20, r28
     6da:	4f 5f       	subi	r20, 0xFF	; 255
     6dc:	5f 4f       	sbci	r21, 0xFF	; 255
     6de:	65 e0       	ldi	r22, 0x05	; 5
     6e0:	0e 94 f0 00 	call	0x1e0	; 0x1e0 <_ZN4User6String10num_to_strEjhPc>
     6e4:	e8 2e       	mov	r14, r24
     6e6:	8e 01       	movw	r16, r28
     6e8:	0f 5f       	subi	r16, 0xFF	; 255
     6ea:	1f 4f       	sbci	r17, 0xFF	; 255
     6ec:	f1 2c       	mov	r15, r1
     6ee:	90 e0       	ldi	r25, 0x00	; 0
     6f0:	6c 01       	movw	r12, r24
     6f2:	c0 1a       	sub	r12, r16
     6f4:	d1 0a       	sbc	r13, r17
     6f6:	5c 01       	movw	r10, r24
     6f8:	25 e0       	ldi	r18, 0x05	; 5
     6fa:	a2 1a       	sub	r10, r18
     6fc:	b1 08       	sbc	r11, r1
     6fe:	80 91 08 28 	lds	r24, 0x2808	; 0x802808 <lcd_cfg_flags>
     702:	80 ff       	sbrs	r24, 0
     704:	04 c0       	rjmp	.+8      	; 0x70e <_Z13lcd_print_u16hj+0x5a>
     706:	fe 14       	cp	r15, r14
     708:	60 f4       	brcc	.+24     	; 0x722 <_Z13lcd_print_u16hj+0x6e>
     70a:	f8 01       	movw	r30, r16
     70c:	08 c0       	rjmp	.+16     	; 0x71e <_Z13lcd_print_u16hj+0x6a>
     70e:	c6 01       	movw	r24, r12
     710:	80 0f       	add	r24, r16
     712:	91 1f       	adc	r25, r17
     714:	05 97       	sbiw	r24, 0x05	; 5
     716:	2c f0       	brlt	.+10     	; 0x722 <_Z13lcd_print_u16hj+0x6e>
     718:	f8 01       	movw	r30, r16
     71a:	ea 0d       	add	r30, r10
     71c:	fb 1d       	adc	r31, r11
     71e:	60 81       	ld	r22, Z
     720:	01 c0       	rjmp	.+2      	; 0x724 <_Z13lcd_print_u16hj+0x70>
     722:	60 e2       	ldi	r22, 0x20	; 32
     724:	89 2d       	mov	r24, r9
     726:	8f 0d       	add	r24, r15
     728:	0e 94 0b 03 	call	0x616	; 0x616 <_Z14lcd_print_charhh>
     72c:	f3 94       	inc	r15
     72e:	0f 5f       	subi	r16, 0xFF	; 255
     730:	1f 4f       	sbci	r17, 0xFF	; 255
     732:	f5 e0       	ldi	r31, 0x05	; 5
     734:	ff 12       	cpse	r15, r31
     736:	e3 cf       	rjmp	.-58     	; 0x6fe <_Z13lcd_print_u16hj+0x4a>
     738:	26 96       	adiw	r28, 0x06	; 6
     73a:	cd bf       	out	0x3d, r28	; 61
     73c:	de bf       	out	0x3e, r29	; 62
     73e:	df 91       	pop	r29
     740:	cf 91       	pop	r28
     742:	1f 91       	pop	r17
     744:	0f 91       	pop	r16
     746:	ff 90       	pop	r15
     748:	ef 90       	pop	r14
     74a:	df 90       	pop	r13
     74c:	cf 90       	pop	r12
     74e:	bf 90       	pop	r11
     750:	af 90       	pop	r10
     752:	9f 90       	pop	r9
     754:	08 95       	ret

00000756 <_Z10init_clockv>:
     756:	88 ed       	ldi	r24, 0xD8	; 216
     758:	84 bf       	out	0x34, r24	; 52
     75a:	e0 e6       	ldi	r30, 0x60	; 96
     75c:	f0 e0       	ldi	r31, 0x00	; 0
     75e:	90 81       	ld	r25, Z
     760:	9c 7f       	andi	r25, 0xFC	; 252
     762:	90 83       	st	Z, r25
     764:	84 bf       	out	0x34, r24	; 52
     766:	90 81       	ld	r25, Z
     768:	9f 77       	andi	r25, 0x7F	; 127
     76a:	90 83       	st	Z, r25
     76c:	84 bf       	out	0x34, r24	; 52
     76e:	91 81       	ldd	r25, Z+1	; 0x01
     770:	9e 7f       	andi	r25, 0xFE	; 254
     772:	91 83       	std	Z+1, r25	; 0x01
     774:	84 bf       	out	0x34, r24	; 52
     776:	91 81       	ldd	r25, Z+1	; 0x01
     778:	91 7e       	andi	r25, 0xE1	; 225
     77a:	91 83       	std	Z+1, r25	; 0x01
     77c:	84 bf       	out	0x34, r24	; 52
     77e:	92 81       	ldd	r25, Z+2	; 0x02
     780:	9e 7f       	andi	r25, 0xFE	; 254
     782:	92 83       	std	Z+2, r25	; 0x02
     784:	90 89       	ldd	r25, Z+16	; 0x10
     786:	92 60       	ori	r25, 0x02	; 2
     788:	90 8b       	std	Z+16, r25	; 0x10
     78a:	84 bf       	out	0x34, r24	; 52
     78c:	82 89       	ldd	r24, Z+18	; 0x12
     78e:	80 68       	ori	r24, 0x80	; 128
     790:	82 8b       	std	Z+18, r24	; 0x12
     792:	08 95       	ret

00000794 <_Z8init_pinv>:
     794:	e0 e0       	ldi	r30, 0x00	; 0
     796:	f4 e0       	ldi	r31, 0x04	; 4
     798:	80 e8       	ldi	r24, 0x80	; 128
     79a:	80 83       	st	Z, r24
     79c:	84 83       	std	Z+4, r24	; 0x04
     79e:	12 86       	std	Z+10, r1	; 0x0a
     7a0:	10 8a       	std	Z+16, r1	; 0x10
     7a2:	11 8a       	std	Z+17, r1	; 0x11
     7a4:	12 8a       	std	Z+18, r1	; 0x12
     7a6:	13 8a       	std	Z+19, r1	; 0x13
     7a8:	14 8a       	std	Z+20, r1	; 0x14
     7aa:	15 8a       	std	Z+21, r1	; 0x15
     7ac:	98 e0       	ldi	r25, 0x08	; 8
     7ae:	96 8b       	std	Z+22, r25	; 0x16
     7b0:	17 8a       	std	Z+23, r1	; 0x17
     7b2:	e0 e2       	ldi	r30, 0x20	; 32
     7b4:	f4 e0       	ldi	r31, 0x04	; 4
     7b6:	9f e3       	ldi	r25, 0x3F	; 63
     7b8:	90 83       	st	Z, r25
     7ba:	14 82       	std	Z+4, r1	; 0x04
     7bc:	12 86       	std	Z+10, r1	; 0x0a
     7be:	10 8a       	std	Z+16, r1	; 0x10
     7c0:	11 8a       	std	Z+17, r1	; 0x11
     7c2:	12 8a       	std	Z+18, r1	; 0x12
     7c4:	13 8a       	std	Z+19, r1	; 0x13
     7c6:	14 8a       	std	Z+20, r1	; 0x14
     7c8:	15 8a       	std	Z+21, r1	; 0x15
     7ca:	16 8a       	std	Z+22, r1	; 0x16
     7cc:	17 8a       	std	Z+23, r1	; 0x17
     7ce:	e0 e4       	ldi	r30, 0x40	; 64
     7d0:	f4 e0       	ldi	r31, 0x04	; 4
     7d2:	90 e3       	ldi	r25, 0x30	; 48
     7d4:	90 83       	st	Z, r25
     7d6:	14 82       	std	Z+4, r1	; 0x04
     7d8:	12 86       	std	Z+10, r1	; 0x0a
     7da:	10 8a       	std	Z+16, r1	; 0x10
     7dc:	11 8a       	std	Z+17, r1	; 0x11
     7de:	12 8a       	std	Z+18, r1	; 0x12
     7e0:	13 8a       	std	Z+19, r1	; 0x13
     7e2:	14 8a       	std	Z+20, r1	; 0x14
     7e4:	15 8a       	std	Z+21, r1	; 0x15
     7e6:	16 8a       	std	Z+22, r1	; 0x16
     7e8:	17 8a       	std	Z+23, r1	; 0x17
     7ea:	e0 e6       	ldi	r30, 0x60	; 96
     7ec:	f4 e0       	ldi	r31, 0x04	; 4
     7ee:	80 83       	st	Z, r24
     7f0:	84 83       	std	Z+4, r24	; 0x04
     7f2:	12 86       	std	Z+10, r1	; 0x0a
     7f4:	10 8a       	std	Z+16, r1	; 0x10
     7f6:	11 8a       	std	Z+17, r1	; 0x11
     7f8:	12 8a       	std	Z+18, r1	; 0x12
     7fa:	13 8a       	std	Z+19, r1	; 0x13
     7fc:	14 8a       	std	Z+20, r1	; 0x14
     7fe:	15 8a       	std	Z+21, r1	; 0x15
     800:	16 8a       	std	Z+22, r1	; 0x16
     802:	17 8a       	std	Z+23, r1	; 0x17
     804:	e0 e8       	ldi	r30, 0x80	; 128
     806:	f4 e0       	ldi	r31, 0x04	; 4
     808:	81 e0       	ldi	r24, 0x01	; 1
     80a:	80 83       	st	Z, r24
     80c:	14 82       	std	Z+4, r1	; 0x04
     80e:	12 86       	std	Z+10, r1	; 0x0a
     810:	10 8a       	std	Z+16, r1	; 0x10
     812:	11 8a       	std	Z+17, r1	; 0x11
     814:	12 8a       	std	Z+18, r1	; 0x12
     816:	13 8a       	std	Z+19, r1	; 0x13
     818:	14 8a       	std	Z+20, r1	; 0x14
     81a:	15 8a       	std	Z+21, r1	; 0x15
     81c:	16 8a       	std	Z+22, r1	; 0x16
     81e:	17 8a       	std	Z+23, r1	; 0x17
     820:	e0 ea       	ldi	r30, 0xA0	; 160
     822:	f4 e0       	ldi	r31, 0x04	; 4
     824:	8f e0       	ldi	r24, 0x0F	; 15
     826:	80 83       	st	Z, r24
     828:	14 82       	std	Z+4, r1	; 0x04
     82a:	12 86       	std	Z+10, r1	; 0x0a
     82c:	10 8a       	std	Z+16, r1	; 0x10
     82e:	11 8a       	std	Z+17, r1	; 0x11
     830:	12 8a       	std	Z+18, r1	; 0x12
     832:	13 8a       	std	Z+19, r1	; 0x13
     834:	14 8a       	std	Z+20, r1	; 0x14
     836:	15 8a       	std	Z+21, r1	; 0x15
     838:	16 8a       	std	Z+22, r1	; 0x16
     83a:	17 8a       	std	Z+23, r1	; 0x17
     83c:	08 95       	ret

0000083e <_Z8init_rtcv>:
     83e:	e0 e4       	ldi	r30, 0x40	; 64
     840:	f1 e0       	ldi	r31, 0x01	; 1
     842:	80 81       	ld	r24, Z
     844:	42 81       	ldd	r20, Z+2	; 0x02
     846:	55 81       	ldd	r21, Z+5	; 0x05
     848:	37 81       	ldd	r19, Z+7	; 0x07
     84a:	90 89       	ldd	r25, Z+16	; 0x10
     84c:	22 89       	ldd	r18, Z+18	; 0x12
     84e:	3c 7f       	andi	r19, 0xFC	; 252
     850:	87 78       	andi	r24, 0x87	; 135
     852:	81 68       	ori	r24, 0x81	; 129
     854:	96 78       	andi	r25, 0x86	; 134
     856:	91 62       	ori	r25, 0x21	; 33
     858:	21 60       	ori	r18, 0x01	; 1
     85a:	16 82       	std	Z+6, r1	; 0x06
     85c:	12 86       	std	Z+10, r1	; 0x0a
     85e:	13 86       	std	Z+11, r1	; 0x0b
     860:	14 86       	std	Z+12, r1	; 0x0c
     862:	15 86       	std	Z+13, r1	; 0x0d
     864:	55 83       	std	Z+5, r21	; 0x05
     866:	37 83       	std	Z+7, r19	; 0x07
     868:	90 8b       	std	Z+16, r25	; 0x10
     86a:	80 83       	st	Z, r24
     86c:	42 83       	std	Z+2, r20	; 0x02
     86e:	22 8b       	std	Z+18, r18	; 0x12
     870:	08 95       	ret

00000872 <_Z4initv>:
     872:	0e 94 ab 03 	call	0x756	; 0x756 <_Z10init_clockv>
     876:	0e 94 ca 03 	call	0x794	; 0x794 <_Z8init_pinv>
     87a:	0c 94 1f 04 	jmp	0x83e	; 0x83e <_Z8init_rtcv>

0000087e <__vector_4>:
     87e:	1f 92       	push	r1
     880:	0f 92       	push	r0
     882:	0f b6       	in	r0, 0x3f	; 63
     884:	0f 92       	push	r0
     886:	11 24       	eor	r1, r1
     888:	2f 93       	push	r18
     88a:	8f 93       	push	r24
     88c:	9f 93       	push	r25
     88e:	80 91 9e 28 	lds	r24, 0x289E	; 0x80289e <g_isr_flags>
     892:	80 fd       	sbrc	r24, 0
     894:	06 c0       	rjmp	.+12     	; 0x8a2 <__vector_4+0x24>
     896:	80 91 9e 28 	lds	r24, 0x289E	; 0x80289e <g_isr_flags>
     89a:	81 60       	ori	r24, 0x01	; 1
     89c:	80 93 9e 28 	sts	0x289E, r24	; 0x80289e <g_isr_flags>
     8a0:	07 c0       	rjmp	.+14     	; 0x8b0 <__vector_4+0x32>
     8a2:	80 91 9d 28 	lds	r24, 0x289D	; 0x80289d <ge_error_code>
     8a6:	88 23       	and	r24, r24
     8a8:	19 f0       	breq	.+6      	; 0x8b0 <__vector_4+0x32>
     8aa:	81 e0       	ldi	r24, 0x01	; 1
     8ac:	80 93 9d 28 	sts	0x289D, r24	; 0x80289d <ge_error_code>
     8b0:	80 91 2d 28 	lds	r24, 0x282D	; 0x80282d <_ZZ10__vector_4E8pre_slow>
     8b4:	90 91 2e 28 	lds	r25, 0x282E	; 0x80282e <_ZZ10__vector_4E8pre_slow+0x1>
     8b8:	00 97       	sbiw	r24, 0x00	; 0
     8ba:	91 f4       	brne	.+36     	; 0x8e0 <__vector_4+0x62>
     8bc:	20 91 9e 28 	lds	r18, 0x289E	; 0x80289e <g_isr_flags>
     8c0:	21 fd       	sbrc	r18, 1
     8c2:	06 c0       	rjmp	.+12     	; 0x8d0 <__vector_4+0x52>
     8c4:	20 91 9e 28 	lds	r18, 0x289E	; 0x80289e <g_isr_flags>
     8c8:	22 60       	ori	r18, 0x02	; 2
     8ca:	20 93 9e 28 	sts	0x289E, r18	; 0x80289e <g_isr_flags>
     8ce:	1d c0       	rjmp	.+58     	; 0x90a <__vector_4+0x8c>
     8d0:	20 91 9d 28 	lds	r18, 0x289D	; 0x80289d <ge_error_code>
     8d4:	22 23       	and	r18, r18
     8d6:	c9 f0       	breq	.+50     	; 0x90a <__vector_4+0x8c>
     8d8:	22 e0       	ldi	r18, 0x02	; 2
     8da:	20 93 9d 28 	sts	0x289D, r18	; 0x80289d <ge_error_code>
     8de:	15 c0       	rjmp	.+42     	; 0x90a <__vector_4+0x8c>
     8e0:	87 3e       	cpi	r24, 0xE7	; 231
     8e2:	23 e0       	ldi	r18, 0x03	; 3
     8e4:	92 07       	cpc	r25, r18
     8e6:	89 f4       	brne	.+34     	; 0x90a <__vector_4+0x8c>
     8e8:	80 e0       	ldi	r24, 0x00	; 0
     8ea:	90 e0       	ldi	r25, 0x00	; 0
     8ec:	80 93 2d 28 	sts	0x282D, r24	; 0x80282d <_ZZ10__vector_4E8pre_slow>
     8f0:	90 93 2e 28 	sts	0x282E, r25	; 0x80282e <_ZZ10__vector_4E8pre_slow+0x1>
     8f4:	81 e0       	ldi	r24, 0x01	; 1
     8f6:	80 93 53 01 	sts	0x0153, r24	; 0x800153 <__TEXT_REGION_LENGTH__+0x7f4153>
     8fa:	9f 91       	pop	r25
     8fc:	8f 91       	pop	r24
     8fe:	2f 91       	pop	r18
     900:	0f 90       	pop	r0
     902:	0f be       	out	0x3f, r0	; 63
     904:	0f 90       	pop	r0
     906:	1f 90       	pop	r1
     908:	18 95       	reti
     90a:	01 96       	adiw	r24, 0x01	; 1
     90c:	ef cf       	rjmp	.-34     	; 0x8ec <__vector_4+0x6e>

0000090e <__vector_7>:
     90e:	1f 92       	push	r1
     910:	0f 92       	push	r0
     912:	0f b6       	in	r0, 0x3f	; 63
     914:	0f 92       	push	r0
     916:	11 24       	eor	r1, r1
     918:	2f 93       	push	r18
     91a:	3f 93       	push	r19
     91c:	4f 93       	push	r20
     91e:	5f 93       	push	r21
     920:	6f 93       	push	r22
     922:	7f 93       	push	r23
     924:	8f 93       	push	r24
     926:	9f 93       	push	r25
     928:	af 93       	push	r26
     92a:	bf 93       	push	r27
     92c:	ef 93       	push	r30
     92e:	ff 93       	push	r31
     930:	8f e2       	ldi	r24, 0x2F	; 47
     932:	98 e2       	ldi	r25, 0x28	; 40
     934:	0e 94 67 09 	call	0x12ce	; 0x12ce <_ZN9OrangeBot5Servo13hal_timer_isrEv>
     938:	81 e0       	ldi	r24, 0x01	; 1
     93a:	80 93 0b 0a 	sts	0x0A0B, r24	; 0x800a0b <__TEXT_REGION_LENGTH__+0x7f4a0b>
     93e:	ff 91       	pop	r31
     940:	ef 91       	pop	r30
     942:	bf 91       	pop	r27
     944:	af 91       	pop	r26
     946:	9f 91       	pop	r25
     948:	8f 91       	pop	r24
     94a:	7f 91       	pop	r23
     94c:	6f 91       	pop	r22
     94e:	5f 91       	pop	r21
     950:	4f 91       	pop	r20
     952:	3f 91       	pop	r19
     954:	2f 91       	pop	r18
     956:	0f 90       	pop	r0
     958:	0f be       	out	0x3f, r0	; 63
     95a:	0f 90       	pop	r0
     95c:	1f 90       	pop	r1
     95e:	18 95       	reti

00000960 <main>:
     960:	cf 93       	push	r28
     962:	df 93       	push	r29
     964:	cd b7       	in	r28, 0x3d	; 61
     966:	de b7       	in	r29, 0x3e	; 62
     968:	ce 56       	subi	r28, 0x6E	; 110
     96a:	d1 09       	sbc	r29, r1
     96c:	cd bf       	out	0x3d, r28	; 61
     96e:	de bf       	out	0x3e, r29	; 62
     970:	0e 94 39 04 	call	0x872	; 0x872 <_Z4initv>
     974:	80 91 04 04 	lds	r24, 0x0404	; 0x800404 <__TEXT_REGION_LENGTH__+0x7f4404>
     978:	80 68       	ori	r24, 0x80	; 128
     97a:	80 93 04 04 	sts	0x0404, r24	; 0x800404 <__TEXT_REGION_LENGTH__+0x7f4404>
     97e:	2f e7       	ldi	r18, 0x7F	; 127
     980:	84 e8       	ldi	r24, 0x84	; 132
     982:	9e e1       	ldi	r25, 0x1E	; 30
     984:	21 50       	subi	r18, 0x01	; 1
     986:	80 40       	sbci	r24, 0x00	; 0
     988:	90 40       	sbci	r25, 0x00	; 0
     98a:	e1 f7       	brne	.-8      	; 0x984 <main+0x24>
     98c:	00 c0       	rjmp	.+0      	; 0x98e <main+0x2e>
     98e:	00 00       	nop
     990:	80 91 04 04 	lds	r24, 0x0404	; 0x800404 <__TEXT_REGION_LENGTH__+0x7f4404>
     994:	8f 77       	andi	r24, 0x7F	; 127
     996:	80 93 04 04 	sts	0x0404, r24	; 0x800404 <__TEXT_REGION_LENGTH__+0x7f4404>
     99a:	2f e7       	ldi	r18, 0x7F	; 127
     99c:	84 e8       	ldi	r24, 0x84	; 132
     99e:	9e e1       	ldi	r25, 0x1E	; 30
     9a0:	21 50       	subi	r18, 0x01	; 1
     9a2:	80 40       	sbci	r24, 0x00	; 0
     9a4:	90 40       	sbci	r25, 0x00	; 0
     9a6:	e1 f7       	brne	.-8      	; 0x9a0 <main+0x40>
     9a8:	00 c0       	rjmp	.+0      	; 0x9aa <main+0x4a>
     9aa:	00 00       	nop
     9ac:	0e 94 b5 01 	call	0x36a	; 0x36a <_Z8lcd_initv>
     9b0:	67 e4       	ldi	r22, 0x47	; 71
     9b2:	76 e5       	ldi	r23, 0x56	; 86
     9b4:	80 e0       	ldi	r24, 0x00	; 0
     9b6:	0e 94 31 03 	call	0x662	; 0x662 <_Z13lcd_print_strhPKc>
     9ba:	ce 01       	movw	r24, r28
     9bc:	01 96       	adiw	r24, 0x01	; 1
     9be:	0e 94 a1 07 	call	0xf42	; 0xf42 <_ZN9OrangeBot5ServoC1Ev>
     9c2:	8e e6       	ldi	r24, 0x6E	; 110
     9c4:	fe 01       	movw	r30, r28
     9c6:	31 96       	adiw	r30, 0x01	; 1
     9c8:	af e2       	ldi	r26, 0x2F	; 47
     9ca:	b8 e2       	ldi	r27, 0x28	; 40
     9cc:	01 90       	ld	r0, Z+
     9ce:	0d 92       	st	X+, r0
     9d0:	8a 95       	dec	r24
     9d2:	e1 f7       	brne	.-8      	; 0x9cc <main+0x6c>
     9d4:	ce 01       	movw	r24, r28
     9d6:	01 96       	adiw	r24, 0x01	; 1
     9d8:	0e 94 79 05 	call	0xaf2	; 0xaf2 <_ZN9OrangeBot5ServoD1Ev>
     9dc:	61 e0       	ldi	r22, 0x01	; 1
     9de:	8f e2       	ldi	r24, 0x2F	; 47
     9e0:	98 e2       	ldi	r25, 0x28	; 40
     9e2:	0e 94 d2 07 	call	0xfa4	; 0xfa4 <_ZN9OrangeBot5Servo5powerEb>
     9e6:	78 94       	sei
     9e8:	80 e0       	ldi	r24, 0x00	; 0
     9ea:	90 e0       	ldi	r25, 0x00	; 0
     9ec:	0e 94 c6 0a 	call	0x158c	; 0x158c <srand>
     9f0:	00 e0       	ldi	r16, 0x00	; 0
     9f2:	10 e0       	ldi	r17, 0x00	; 0
     9f4:	40 e1       	ldi	r20, 0x10	; 16
     9f6:	e4 2e       	mov	r14, r20
     9f8:	58 e0       	ldi	r21, 0x08	; 8
     9fa:	a5 2e       	mov	r10, r21
     9fc:	b1 2c       	mov	r11, r1
     9fe:	62 e3       	ldi	r22, 0x32	; 50
     a00:	56 2e       	mov	r5, r22
     a02:	70 e2       	ldi	r23, 0x20	; 32
     a04:	67 2e       	mov	r6, r23
     a06:	73 e0       	ldi	r23, 0x03	; 3
     a08:	77 2e       	mov	r7, r23
     a0a:	80 91 9e 28 	lds	r24, 0x289E	; 0x80289e <g_isr_flags>
     a0e:	80 ff       	sbrs	r24, 0
     a10:	1a c0       	rjmp	.+52     	; 0xa46 <main+0xe6>
     a12:	80 91 9e 28 	lds	r24, 0x289E	; 0x80289e <g_isr_flags>
     a16:	8e 7f       	andi	r24, 0xFE	; 254
     a18:	80 93 9e 28 	sts	0x289E, r24	; 0x80289e <g_isr_flags>
     a1c:	20 91 44 04 	lds	r18, 0x0444	; 0x800444 <__TEXT_REGION_LENGTH__+0x7f4444>
     a20:	80 91 08 04 	lds	r24, 0x0408	; 0x800408 <__TEXT_REGION_LENGTH__+0x7f4408>
     a24:	86 fb       	bst	r24, 6
     a26:	cc 24       	eor	r12, r12
     a28:	c0 f8       	bld	r12, 0
     a2a:	d1 2c       	mov	r13, r1
     a2c:	c6 01       	movw	r24, r12
     a2e:	35 e0       	ldi	r19, 0x05	; 5
     a30:	88 0f       	add	r24, r24
     a32:	99 1f       	adc	r25, r25
     a34:	3a 95       	dec	r19
     a36:	e1 f7       	brne	.-8      	; 0xa30 <main+0xd0>
     a38:	92 2f       	mov	r25, r18
     a3a:	9f 7d       	andi	r25, 0xDF	; 223
     a3c:	89 2b       	or	r24, r25
     a3e:	80 93 44 04 	sts	0x0444, r24	; 0x800444 <__TEXT_REGION_LENGTH__+0x7f4444>
     a42:	0e 94 d6 01 	call	0x3ac	; 0x3ac <_Z10lcd_updatev>
     a46:	80 91 9e 28 	lds	r24, 0x289E	; 0x80289e <g_isr_flags>
     a4a:	81 ff       	sbrs	r24, 1
     a4c:	de cf       	rjmp	.-68     	; 0xa0a <main+0xaa>
     a4e:	80 91 9e 28 	lds	r24, 0x289E	; 0x80289e <g_isr_flags>
     a52:	8d 7f       	andi	r24, 0xFD	; 253
     a54:	80 93 9e 28 	sts	0x289E, r24	; 0x80289e <g_isr_flags>
     a58:	e0 92 47 04 	sts	0x0447, r14	; 0x800447 <__TEXT_REGION_LENGTH__+0x7f4447>
     a5c:	b8 01       	movw	r22, r16
     a5e:	80 e1       	ldi	r24, 0x10	; 16
     a60:	0e 94 5a 03 	call	0x6b4	; 0x6b4 <_Z13lcd_print_u16hj>
     a64:	0f 5f       	subi	r16, 0xFF	; 255
     a66:	1f 4f       	sbci	r17, 0xFF	; 255
     a68:	c8 01       	movw	r24, r16
     a6a:	83 70       	andi	r24, 0x03	; 3
     a6c:	99 27       	eor	r25, r25
     a6e:	00 97       	sbiw	r24, 0x00	; 0
     a70:	61 f4       	brne	.+24     	; 0xa8a <main+0x12a>
     a72:	28 ee       	ldi	r18, 0xE8	; 232
     a74:	33 e0       	ldi	r19, 0x03	; 3
     a76:	48 e3       	ldi	r20, 0x38	; 56
     a78:	5f ef       	ldi	r21, 0xFF	; 255
     a7a:	60 e0       	ldi	r22, 0x00	; 0
     a7c:	8f e2       	ldi	r24, 0x2F	; 47
     a7e:	98 e2       	ldi	r25, 0x28	; 40
     a80:	0e 94 af 05 	call	0xb5e	; 0xb5e <_ZN9OrangeBot5Servo9set_servoEhij>
     a84:	ff 24       	eor	r15, r15
     a86:	f3 94       	inc	r15
     a88:	0d c0       	rjmp	.+26     	; 0xaa4 <main+0x144>
     a8a:	02 97       	sbiw	r24, 0x02	; 2
     a8c:	19 f4       	brne	.+6      	; 0xa94 <main+0x134>
     a8e:	48 ec       	ldi	r20, 0xC8	; 200
     a90:	50 e0       	ldi	r21, 0x00	; 0
     a92:	02 c0       	rjmp	.+4      	; 0xa98 <main+0x138>
     a94:	40 e0       	ldi	r20, 0x00	; 0
     a96:	50 e0       	ldi	r21, 0x00	; 0
     a98:	60 e0       	ldi	r22, 0x00	; 0
     a9a:	8f e2       	ldi	r24, 0x2F	; 47
     a9c:	98 e2       	ldi	r25, 0x28	; 40
     a9e:	0e 94 7a 05 	call	0xaf4	; 0xaf4 <_ZN9OrangeBot5Servo9set_servoEhi>
     aa2:	f0 cf       	rjmp	.-32     	; 0xa84 <main+0x124>
     aa4:	0e 94 c1 0a 	call	0x1582	; 0x1582 <rand>
     aa8:	4c 01       	movw	r8, r24
     aaa:	0e 94 c1 0a 	call	0x1582	; 0x1582 <rand>
     aae:	b5 01       	movw	r22, r10
     ab0:	0e 94 1f 0a 	call	0x143e	; 0x143e <__divmodhi4>
     ab4:	01 96       	adiw	r24, 0x01	; 1
     ab6:	58 9e       	mul	r5, r24
     ab8:	90 01       	movw	r18, r0
     aba:	59 9e       	mul	r5, r25
     abc:	30 0d       	add	r19, r0
     abe:	11 24       	eor	r1, r1
     ac0:	c4 01       	movw	r24, r8
     ac2:	b3 01       	movw	r22, r6
     ac4:	0e 94 0b 0a 	call	0x1416	; 0x1416 <__udivmodhi4>
     ac8:	ac 01       	movw	r20, r24
     aca:	40 59       	subi	r20, 0x90	; 144
     acc:	51 40       	sbci	r21, 0x01	; 1
     ace:	6f 2d       	mov	r22, r15
     ad0:	8f e2       	ldi	r24, 0x2F	; 47
     ad2:	98 e2       	ldi	r25, 0x28	; 40
     ad4:	0e 94 af 05 	call	0xb5e	; 0xb5e <_ZN9OrangeBot5Servo9set_servoEhij>
     ad8:	f3 94       	inc	r15
     ada:	28 e0       	ldi	r18, 0x08	; 8
     adc:	f2 12       	cpse	r15, r18
     ade:	e2 cf       	rjmp	.-60     	; 0xaa4 <main+0x144>
     ae0:	94 cf       	rjmp	.-216    	; 0xa0a <main+0xaa>

00000ae2 <_GLOBAL__sub_I_g_isr_flags>:
     ae2:	8f e2       	ldi	r24, 0x2F	; 47
     ae4:	98 e2       	ldi	r25, 0x28	; 40
     ae6:	0c 94 a1 07 	jmp	0xf42	; 0xf42 <_ZN9OrangeBot5ServoC1Ev>

00000aea <_GLOBAL__sub_D_g_isr_flags>:
     aea:	8f e2       	ldi	r24, 0x2F	; 47
     aec:	98 e2       	ldi	r25, 0x28	; 40
     aee:	0c 94 79 05 	jmp	0xaf2	; 0xaf2 <_ZN9OrangeBot5ServoD1Ev>

00000af2 <_ZN9OrangeBot5ServoD1Ev>:
     af2:	08 95       	ret

00000af4 <_ZN9OrangeBot5Servo9set_servoEhi>:
     af4:	68 30       	cpi	r22, 0x08	; 8
     af6:	60 f0       	brcs	.+24     	; 0xb10 <_ZN9OrangeBot5Servo9set_servoEhi+0x1c>
     af8:	fc 01       	movw	r30, r24
     afa:	e5 59       	subi	r30, 0x95	; 149
     afc:	ff 4f       	sbci	r31, 0xFF	; 255
     afe:	20 81       	ld	r18, Z
     b00:	21 11       	cpse	r18, r1
     b02:	29 c0       	rjmp	.+82     	; 0xb56 <_ZN9OrangeBot5Servo9set_servoEhi+0x62>
     b04:	27 e0       	ldi	r18, 0x07	; 7
     b06:	20 83       	st	Z, r18
     b08:	31 96       	adiw	r30, 0x01	; 1
     b0a:	26 e4       	ldi	r18, 0x46	; 70
     b0c:	32 e0       	ldi	r19, 0x02	; 2
     b0e:	11 c0       	rjmp	.+34     	; 0xb32 <_ZN9OrangeBot5Servo9set_servoEhi+0x3e>
     b10:	9a 01       	movw	r18, r20
     b12:	20 57       	subi	r18, 0x70	; 112
     b14:	3e 4f       	sbci	r19, 0xFE	; 254
     b16:	fc 01       	movw	r30, r24
     b18:	21 32       	cpi	r18, 0x21	; 33
     b1a:	33 40       	sbci	r19, 0x03	; 3
     b1c:	68 f0       	brcs	.+26     	; 0xb38 <_ZN9OrangeBot5Servo9set_servoEhi+0x44>
     b1e:	e5 59       	subi	r30, 0x95	; 149
     b20:	ff 4f       	sbci	r31, 0xFF	; 255
     b22:	20 81       	ld	r18, Z
     b24:	21 11       	cpse	r18, r1
     b26:	17 c0       	rjmp	.+46     	; 0xb56 <_ZN9OrangeBot5Servo9set_servoEhi+0x62>
     b28:	27 e0       	ldi	r18, 0x07	; 7
     b2a:	20 83       	st	Z, r18
     b2c:	31 96       	adiw	r30, 0x01	; 1
     b2e:	2c e4       	ldi	r18, 0x4C	; 76
     b30:	32 e0       	ldi	r19, 0x02	; 2
     b32:	20 83       	st	Z, r18
     b34:	31 83       	std	Z+1, r19	; 0x01
     b36:	0f c0       	rjmp	.+30     	; 0xb56 <_ZN9OrangeBot5Servo9set_servoEhi+0x62>
     b38:	28 e0       	ldi	r18, 0x08	; 8
     b3a:	62 9f       	mul	r22, r18
     b3c:	e0 0d       	add	r30, r0
     b3e:	f1 1d       	adc	r31, r1
     b40:	11 24       	eor	r1, r1
     b42:	81 81       	ldd	r24, Z+1	; 0x01
     b44:	92 81       	ldd	r25, Z+2	; 0x02
     b46:	48 17       	cp	r20, r24
     b48:	59 07       	cpc	r21, r25
     b4a:	39 f0       	breq	.+14     	; 0xb5a <_ZN9OrangeBot5Servo9set_servoEhi+0x66>
     b4c:	41 83       	std	Z+1, r20	; 0x01
     b4e:	52 83       	std	Z+2, r21	; 0x02
     b50:	81 e0       	ldi	r24, 0x01	; 1
     b52:	85 83       	std	Z+5, r24	; 0x05
     b54:	02 c0       	rjmp	.+4      	; 0xb5a <_ZN9OrangeBot5Servo9set_servoEhi+0x66>
     b56:	81 e0       	ldi	r24, 0x01	; 1
     b58:	08 95       	ret
     b5a:	80 e0       	ldi	r24, 0x00	; 0
     b5c:	08 95       	ret

00000b5e <_ZN9OrangeBot5Servo9set_servoEhij>:
     b5e:	68 30       	cpi	r22, 0x08	; 8
     b60:	60 f0       	brcs	.+24     	; 0xb7a <_ZN9OrangeBot5Servo9set_servoEhij+0x1c>
     b62:	fc 01       	movw	r30, r24
     b64:	e5 59       	subi	r30, 0x95	; 149
     b66:	ff 4f       	sbci	r31, 0xFF	; 255
     b68:	20 81       	ld	r18, Z
     b6a:	21 11       	cpse	r18, r1
     b6c:	3b c0       	rjmp	.+118    	; 0xbe4 <_ZN9OrangeBot5Servo9set_servoEhij+0x86>
     b6e:	27 e0       	ldi	r18, 0x07	; 7
     b70:	20 83       	st	Z, r18
     b72:	31 96       	adiw	r30, 0x01	; 1
     b74:	27 e7       	ldi	r18, 0x77	; 119
     b76:	32 e0       	ldi	r19, 0x02	; 2
     b78:	11 c0       	rjmp	.+34     	; 0xb9c <_ZN9OrangeBot5Servo9set_servoEhij+0x3e>
     b7a:	fa 01       	movw	r30, r20
     b7c:	e0 57       	subi	r30, 0x70	; 112
     b7e:	fe 4f       	sbci	r31, 0xFE	; 254
     b80:	e1 32       	cpi	r30, 0x21	; 33
     b82:	f3 40       	sbci	r31, 0x03	; 3
     b84:	70 f0       	brcs	.+28     	; 0xba2 <_ZN9OrangeBot5Servo9set_servoEhij+0x44>
     b86:	fc 01       	movw	r30, r24
     b88:	e5 59       	subi	r30, 0x95	; 149
     b8a:	ff 4f       	sbci	r31, 0xFF	; 255
     b8c:	20 81       	ld	r18, Z
     b8e:	21 11       	cpse	r18, r1
     b90:	29 c0       	rjmp	.+82     	; 0xbe4 <_ZN9OrangeBot5Servo9set_servoEhij+0x86>
     b92:	27 e0       	ldi	r18, 0x07	; 7
     b94:	20 83       	st	Z, r18
     b96:	31 96       	adiw	r30, 0x01	; 1
     b98:	2d e7       	ldi	r18, 0x7D	; 125
     b9a:	32 e0       	ldi	r19, 0x02	; 2
     b9c:	20 83       	st	Z, r18
     b9e:	31 83       	std	Z+1, r19	; 0x01
     ba0:	21 c0       	rjmp	.+66     	; 0xbe4 <_ZN9OrangeBot5Servo9set_servoEhij+0x86>
     ba2:	78 e0       	ldi	r23, 0x08	; 8
     ba4:	67 9f       	mul	r22, r23
     ba6:	f0 01       	movw	r30, r0
     ba8:	11 24       	eor	r1, r1
     baa:	dc 01       	movw	r26, r24
     bac:	ae 0f       	add	r26, r30
     bae:	bf 1f       	adc	r27, r31
     bb0:	11 96       	adiw	r26, 0x01	; 1
     bb2:	6d 91       	ld	r22, X+
     bb4:	7c 91       	ld	r23, X
     bb6:	12 97       	sbiw	r26, 0x02	; 2
     bb8:	46 17       	cp	r20, r22
     bba:	57 07       	cpc	r21, r23
     bbc:	39 f0       	breq	.+14     	; 0xbcc <_ZN9OrangeBot5Servo9set_servoEhij+0x6e>
     bbe:	11 96       	adiw	r26, 0x01	; 1
     bc0:	4d 93       	st	X+, r20
     bc2:	5c 93       	st	X, r21
     bc4:	12 97       	sbiw	r26, 0x02	; 2
     bc6:	41 e0       	ldi	r20, 0x01	; 1
     bc8:	15 96       	adiw	r26, 0x05	; 5
     bca:	4c 93       	st	X, r20
     bcc:	e8 0f       	add	r30, r24
     bce:	f9 1f       	adc	r31, r25
     bd0:	83 81       	ldd	r24, Z+3	; 0x03
     bd2:	94 81       	ldd	r25, Z+4	; 0x04
     bd4:	82 17       	cp	r24, r18
     bd6:	93 07       	cpc	r25, r19
     bd8:	39 f0       	breq	.+14     	; 0xbe8 <_ZN9OrangeBot5Servo9set_servoEhij+0x8a>
     bda:	23 83       	std	Z+3, r18	; 0x03
     bdc:	34 83       	std	Z+4, r19	; 0x04
     bde:	81 e0       	ldi	r24, 0x01	; 1
     be0:	86 83       	std	Z+6, r24	; 0x06
     be2:	02 c0       	rjmp	.+4      	; 0xbe8 <_ZN9OrangeBot5Servo9set_servoEhij+0x8a>
     be4:	81 e0       	ldi	r24, 0x01	; 1
     be6:	08 95       	ret
     be8:	80 e0       	ldi	r24, 0x00	; 0
     bea:	08 95       	ret

00000bec <_ZN9OrangeBot5Servo12hal_servo_ioEhb>:
     bec:	9c 01       	movw	r18, r24
     bee:	94 2f       	mov	r25, r20
     bf0:	46 2f       	mov	r20, r22
     bf2:	50 e0       	ldi	r21, 0x00	; 0
     bf4:	48 30       	cpi	r20, 0x08	; 8
     bf6:	51 05       	cpc	r21, r1
     bf8:	08 f0       	brcs	.+2      	; 0xbfc <_ZN9OrangeBot5Servo12hal_servo_ioEhb+0x10>
     bfa:	42 c0       	rjmp	.+132    	; 0xc80 <_ZN9OrangeBot5Servo12hal_servo_ioEhb+0x94>
     bfc:	fa 01       	movw	r30, r20
     bfe:	e0 5b       	subi	r30, 0xB0	; 176
     c00:	ff 4f       	sbci	r31, 0xFF	; 255
     c02:	0c 94 55 0a 	jmp	0x14aa	; 0x14aa <__tablejump2__>
     c06:	40 91 84 04 	lds	r20, 0x0484	; 0x800484 <__TEXT_REGION_LENGTH__+0x7f4484>
     c0a:	4e 7f       	andi	r20, 0xFE	; 254
     c0c:	49 2b       	or	r20, r25
     c0e:	07 c0       	rjmp	.+14     	; 0xc1e <_ZN9OrangeBot5Servo12hal_servo_ioEhb+0x32>
     c10:	40 91 84 04 	lds	r20, 0x0484	; 0x800484 <__TEXT_REGION_LENGTH__+0x7f4484>
     c14:	84 2f       	mov	r24, r20
     c16:	8d 7f       	andi	r24, 0xFD	; 253
     c18:	49 2f       	mov	r20, r25
     c1a:	44 0f       	add	r20, r20
     c1c:	48 2b       	or	r20, r24
     c1e:	40 93 84 04 	sts	0x0484, r20	; 0x800484 <__TEXT_REGION_LENGTH__+0x7f4484>
     c22:	2c c0       	rjmp	.+88     	; 0xc7c <_ZN9OrangeBot5Servo12hal_servo_ioEhb+0x90>
     c24:	40 91 84 04 	lds	r20, 0x0484	; 0x800484 <__TEXT_REGION_LENGTH__+0x7f4484>
     c28:	84 2f       	mov	r24, r20
     c2a:	8b 7f       	andi	r24, 0xFB	; 251
     c2c:	24 e0       	ldi	r18, 0x04	; 4
     c2e:	05 c0       	rjmp	.+10     	; 0xc3a <_ZN9OrangeBot5Servo12hal_servo_ioEhb+0x4e>
     c30:	40 91 84 04 	lds	r20, 0x0484	; 0x800484 <__TEXT_REGION_LENGTH__+0x7f4484>
     c34:	84 2f       	mov	r24, r20
     c36:	87 7f       	andi	r24, 0xF7	; 247
     c38:	28 e0       	ldi	r18, 0x08	; 8
     c3a:	92 9f       	mul	r25, r18
     c3c:	a0 01       	movw	r20, r0
     c3e:	11 24       	eor	r1, r1
     c40:	ed cf       	rjmp	.-38     	; 0xc1c <_ZN9OrangeBot5Servo12hal_servo_ioEhb+0x30>
     c42:	40 91 a4 04 	lds	r20, 0x04A4	; 0x8004a4 <__TEXT_REGION_LENGTH__+0x7f44a4>
     c46:	4e 7f       	andi	r20, 0xFE	; 254
     c48:	49 2b       	or	r20, r25
     c4a:	16 c0       	rjmp	.+44     	; 0xc78 <_ZN9OrangeBot5Servo12hal_servo_ioEhb+0x8c>
     c4c:	40 91 a4 04 	lds	r20, 0x04A4	; 0x8004a4 <__TEXT_REGION_LENGTH__+0x7f44a4>
     c50:	84 2f       	mov	r24, r20
     c52:	8d 7f       	andi	r24, 0xFD	; 253
     c54:	49 2f       	mov	r20, r25
     c56:	44 0f       	add	r20, r20
     c58:	0e c0       	rjmp	.+28     	; 0xc76 <_ZN9OrangeBot5Servo12hal_servo_ioEhb+0x8a>
     c5a:	40 91 a4 04 	lds	r20, 0x04A4	; 0x8004a4 <__TEXT_REGION_LENGTH__+0x7f44a4>
     c5e:	84 2f       	mov	r24, r20
     c60:	8b 7f       	andi	r24, 0xFB	; 251
     c62:	24 e0       	ldi	r18, 0x04	; 4
     c64:	05 c0       	rjmp	.+10     	; 0xc70 <_ZN9OrangeBot5Servo12hal_servo_ioEhb+0x84>
     c66:	40 91 a4 04 	lds	r20, 0x04A4	; 0x8004a4 <__TEXT_REGION_LENGTH__+0x7f44a4>
     c6a:	84 2f       	mov	r24, r20
     c6c:	87 7f       	andi	r24, 0xF7	; 247
     c6e:	28 e0       	ldi	r18, 0x08	; 8
     c70:	92 9f       	mul	r25, r18
     c72:	a0 01       	movw	r20, r0
     c74:	11 24       	eor	r1, r1
     c76:	48 2b       	or	r20, r24
     c78:	40 93 a4 04 	sts	0x04A4, r20	; 0x8004a4 <__TEXT_REGION_LENGTH__+0x7f44a4>
     c7c:	80 e0       	ldi	r24, 0x00	; 0
     c7e:	08 95       	ret
     c80:	f9 01       	movw	r30, r18
     c82:	e5 59       	subi	r30, 0x95	; 149
     c84:	ff 4f       	sbci	r31, 0xFF	; 255
     c86:	80 81       	ld	r24, Z
     c88:	81 11       	cpse	r24, r1
     c8a:	07 c0       	rjmp	.+14     	; 0xc9a <_ZN9OrangeBot5Servo12hal_servo_ioEhb+0xae>
     c8c:	84 e0       	ldi	r24, 0x04	; 4
     c8e:	80 83       	st	Z, r24
     c90:	31 96       	adiw	r30, 0x01	; 1
     c92:	87 e3       	ldi	r24, 0x37	; 55
     c94:	93 e0       	ldi	r25, 0x03	; 3
     c96:	80 83       	st	Z, r24
     c98:	91 83       	std	Z+1, r25	; 0x01
     c9a:	81 e0       	ldi	r24, 0x01	; 1
     c9c:	08 95       	ret

00000c9e <_ZN9OrangeBot5Servo11hal_init_ioEv>:
     c9e:	e0 e6       	ldi	r30, 0x60	; 96
     ca0:	f4 e0       	ldi	r31, 0x04	; 4
     ca2:	80 81       	ld	r24, Z
     ca4:	80 68       	ori	r24, 0x80	; 128
     ca6:	80 83       	st	Z, r24
     ca8:	e0 e8       	ldi	r30, 0x80	; 128
     caa:	f4 e0       	ldi	r31, 0x04	; 4
     cac:	80 81       	ld	r24, Z
     cae:	81 60       	ori	r24, 0x01	; 1
     cb0:	80 83       	st	Z, r24
     cb2:	80 81       	ld	r24, Z
     cb4:	82 60       	ori	r24, 0x02	; 2
     cb6:	80 83       	st	Z, r24
     cb8:	80 81       	ld	r24, Z
     cba:	84 60       	ori	r24, 0x04	; 4
     cbc:	80 83       	st	Z, r24
     cbe:	80 81       	ld	r24, Z
     cc0:	88 60       	ori	r24, 0x08	; 8
     cc2:	80 83       	st	Z, r24
     cc4:	e0 ea       	ldi	r30, 0xA0	; 160
     cc6:	f4 e0       	ldi	r31, 0x04	; 4
     cc8:	80 81       	ld	r24, Z
     cca:	81 60       	ori	r24, 0x01	; 1
     ccc:	80 83       	st	Z, r24
     cce:	80 81       	ld	r24, Z
     cd0:	82 60       	ori	r24, 0x02	; 2
     cd2:	80 83       	st	Z, r24
     cd4:	80 81       	ld	r24, Z
     cd6:	84 60       	ori	r24, 0x04	; 4
     cd8:	80 83       	st	Z, r24
     cda:	80 81       	ld	r24, Z
     cdc:	88 60       	ori	r24, 0x08	; 8
     cde:	80 83       	st	Z, r24
     ce0:	80 e0       	ldi	r24, 0x00	; 0
     ce2:	08 95       	ret

00000ce4 <_ZN9OrangeBot5Servo25hal_init_ta0_timeout_modeEj>:
     ce4:	1f 93       	push	r17
     ce6:	cf 93       	push	r28
     ce8:	df 93       	push	r29
     cea:	e0 e0       	ldi	r30, 0x00	; 0
     cec:	fa e0       	ldi	r31, 0x0A	; 10
     cee:	80 81       	ld	r24, Z
     cf0:	31 81       	ldd	r19, Z+1	; 0x01
     cf2:	12 81       	ldd	r17, Z+2	; 0x02
     cf4:	d3 81       	ldd	r29, Z+3	; 0x03
     cf6:	c5 81       	ldd	r28, Z+5	; 0x05
     cf8:	26 85       	ldd	r18, Z+14	; 0x0e
     cfa:	a0 ee       	ldi	r26, 0xE0	; 224
     cfc:	b5 e0       	ldi	r27, 0x05	; 5
     cfe:	14 96       	adiw	r26, 0x04	; 4
     d00:	5c 91       	ld	r21, X
     d02:	14 97       	sbiw	r26, 0x04	; 4
     d04:	41 85       	ldd	r20, Z+9	; 0x09
     d06:	92 85       	ldd	r25, Z+10	; 0x0a
     d08:	81 7f       	andi	r24, 0xF1	; 241
     d0a:	88 60       	ori	r24, 0x08	; 8
     d0c:	38 7f       	andi	r19, 0xF8	; 248
     d0e:	91 60       	ori	r25, 0x01	; 1
     d10:	21 60       	ori	r18, 0x01	; 1
     d12:	31 83       	std	Z+1, r19	; 0x01
     d14:	12 83       	std	Z+2, r17	; 0x02
     d16:	d3 83       	std	Z+3, r29	; 0x03
     d18:	c5 83       	std	Z+5, r28	; 0x05
     d1a:	26 87       	std	Z+14, r18	; 0x0e
     d1c:	14 96       	adiw	r26, 0x04	; 4
     d1e:	5c 93       	st	X, r21
     d20:	66 a3       	std	Z+38, r22	; 0x26
     d22:	77 a3       	std	Z+39, r23	; 0x27
     d24:	10 a6       	std	Z+40, r1	; 0x28
     d26:	11 a6       	std	Z+41, r1	; 0x29
     d28:	12 a6       	std	Z+42, r1	; 0x2a
     d2a:	13 a6       	std	Z+43, r1	; 0x2b
     d2c:	14 a6       	std	Z+44, r1	; 0x2c
     d2e:	15 a6       	std	Z+45, r1	; 0x2d
     d30:	80 83       	st	Z, r24
     d32:	41 87       	std	Z+9, r20	; 0x09
     d34:	92 87       	std	Z+10, r25	; 0x0a
     d36:	80 e0       	ldi	r24, 0x00	; 0
     d38:	df 91       	pop	r29
     d3a:	cf 91       	pop	r28
     d3c:	1f 91       	pop	r17
     d3e:	08 95       	ret

00000d40 <_ZN9OrangeBot5Servo26hal_microseconds_to_countsEj>:
     d40:	cf 93       	push	r28
     d42:	df 93       	push	r29
     d44:	ec 01       	movw	r28, r24
     d46:	9b 01       	movw	r18, r22
     d48:	a8 ee       	ldi	r26, 0xE8	; 232
     d4a:	b3 e0       	ldi	r27, 0x03	; 3
     d4c:	0e 94 5b 0a 	call	0x14b6	; 0x14b6 <__umulhisi3>
     d50:	20 e2       	ldi	r18, 0x20	; 32
     d52:	33 e0       	ldi	r19, 0x03	; 3
     d54:	40 e0       	ldi	r20, 0x00	; 0
     d56:	50 e0       	ldi	r21, 0x00	; 0
     d58:	0e 94 33 0a 	call	0x1466	; 0x1466 <__udivmodsi4>
     d5c:	2e 3f       	cpi	r18, 0xFE	; 254
     d5e:	8f ef       	ldi	r24, 0xFF	; 255
     d60:	38 07       	cpc	r19, r24
     d62:	41 05       	cpc	r20, r1
     d64:	51 05       	cpc	r21, r1
     d66:	78 f0       	brcs	.+30     	; 0xd86 <_ZN9OrangeBot5Servo26hal_microseconds_to_countsEj+0x46>
     d68:	fe 01       	movw	r30, r28
     d6a:	e5 59       	subi	r30, 0x95	; 149
     d6c:	ff 4f       	sbci	r31, 0xFF	; 255
     d6e:	80 81       	ld	r24, Z
     d70:	81 11       	cpse	r24, r1
     d72:	0b c0       	rjmp	.+22     	; 0xd8a <_ZN9OrangeBot5Servo26hal_microseconds_to_countsEj+0x4a>
     d74:	86 e0       	ldi	r24, 0x06	; 6
     d76:	80 83       	st	Z, r24
     d78:	c4 59       	subi	r28, 0x94	; 148
     d7a:	df 4f       	sbci	r29, 0xFF	; 255
     d7c:	8f e0       	ldi	r24, 0x0F	; 15
     d7e:	95 e0       	ldi	r25, 0x05	; 5
     d80:	88 83       	st	Y, r24
     d82:	99 83       	std	Y+1, r25	; 0x01
     d84:	02 c0       	rjmp	.+4      	; 0xd8a <_ZN9OrangeBot5Servo26hal_microseconds_to_countsEj+0x4a>
     d86:	c9 01       	movw	r24, r18
     d88:	02 c0       	rjmp	.+4      	; 0xd8e <_ZN9OrangeBot5Servo26hal_microseconds_to_countsEj+0x4e>
     d8a:	8f ef       	ldi	r24, 0xFF	; 255
     d8c:	9f ef       	ldi	r25, 0xFF	; 255
     d8e:	df 91       	pop	r29
     d90:	cf 91       	pop	r28
     d92:	08 95       	ret

00000d94 <_ZN9OrangeBot5Servo19hal_timer_set_delayEj>:
     d94:	0f 93       	push	r16
     d96:	1f 93       	push	r17
     d98:	cf 93       	push	r28
     d9a:	df 93       	push	r29
     d9c:	9b 01       	movw	r18, r22
     d9e:	2c 54       	subi	r18, 0x4C	; 76
     da0:	34 40       	sbci	r19, 0x04	; 4
     da2:	25 3d       	cpi	r18, 0xD5	; 213
     da4:	39 44       	sbci	r19, 0x49	; 73
     da6:	88 f0       	brcs	.+34     	; 0xdca <_ZN9OrangeBot5Servo19hal_timer_set_delayEj+0x36>
     da8:	fc 01       	movw	r30, r24
     daa:	e5 59       	subi	r30, 0x95	; 149
     dac:	ff 4f       	sbci	r31, 0xFF	; 255
     dae:	20 81       	ld	r18, Z
     db0:	21 11       	cpse	r18, r1
     db2:	09 c0       	rjmp	.+18     	; 0xdc6 <_ZN9OrangeBot5Servo19hal_timer_set_delayEj+0x32>
     db4:	27 e0       	ldi	r18, 0x07	; 7
     db6:	20 83       	st	Z, r18
     db8:	ec 01       	movw	r28, r24
     dba:	c4 59       	subi	r28, 0x94	; 148
     dbc:	df 4f       	sbci	r29, 0xFF	; 255
     dbe:	83 e3       	ldi	r24, 0x33	; 51
     dc0:	95 e0       	ldi	r25, 0x05	; 5
     dc2:	88 83       	st	Y, r24
     dc4:	99 83       	std	Y+1, r25	; 0x01
     dc6:	81 e0       	ldi	r24, 0x01	; 1
     dc8:	3b c0       	rjmp	.+118    	; 0xe40 <_ZN9OrangeBot5Servo19hal_timer_set_delayEj+0xac>
     dca:	ec 01       	movw	r28, r24
     dcc:	80 91 00 0a 	lds	r24, 0x0A00	; 0x800a00 <__TEXT_REGION_LENGTH__+0x7f4a00>
     dd0:	8e 7f       	andi	r24, 0xFE	; 254
     dd2:	80 93 00 0a 	sts	0x0A00, r24	; 0x800a00 <__TEXT_REGION_LENGTH__+0x7f4a00>
     dd6:	00 91 20 0a 	lds	r16, 0x0A20	; 0x800a20 <__TEXT_REGION_LENGTH__+0x7f4a20>
     dda:	10 91 21 0a 	lds	r17, 0x0A21	; 0x800a21 <__TEXT_REGION_LENGTH__+0x7f4a21>
     dde:	ce 01       	movw	r24, r28
     de0:	0e 94 a0 06 	call	0xd40	; 0xd40 <_ZN9OrangeBot5Servo26hal_microseconds_to_countsEj>
     de4:	9c 01       	movw	r18, r24
     de6:	21 50       	subi	r18, 0x01	; 1
     de8:	31 09       	sbc	r19, r1
     dea:	2e 3f       	cpi	r18, 0xFE	; 254
     dec:	4f ef       	ldi	r20, 0xFF	; 255
     dee:	34 07       	cpc	r19, r20
     df0:	68 f0       	brcs	.+26     	; 0xe0c <_ZN9OrangeBot5Servo19hal_timer_set_delayEj+0x78>
     df2:	fe 01       	movw	r30, r28
     df4:	e5 59       	subi	r30, 0x95	; 149
     df6:	ff 4f       	sbci	r31, 0xFF	; 255
     df8:	80 81       	ld	r24, Z
     dfa:	81 11       	cpse	r24, r1
     dfc:	e4 cf       	rjmp	.-56     	; 0xdc6 <_ZN9OrangeBot5Servo19hal_timer_set_delayEj+0x32>
     dfe:	86 e0       	ldi	r24, 0x06	; 6
     e00:	80 83       	st	Z, r24
     e02:	c4 59       	subi	r28, 0x94	; 148
     e04:	df 4f       	sbci	r29, 0xFF	; 255
     e06:	84 e4       	ldi	r24, 0x44	; 68
     e08:	95 e0       	ldi	r25, 0x05	; 5
     e0a:	db cf       	rjmp	.-74     	; 0xdc2 <_ZN9OrangeBot5Servo19hal_timer_set_delayEj+0x2e>
     e0c:	08 17       	cp	r16, r24
     e0e:	19 07       	cpc	r17, r25
     e10:	68 f0       	brcs	.+26     	; 0xe2c <_ZN9OrangeBot5Servo19hal_timer_set_delayEj+0x98>
     e12:	fe 01       	movw	r30, r28
     e14:	e5 59       	subi	r30, 0x95	; 149
     e16:	ff 4f       	sbci	r31, 0xFF	; 255
     e18:	80 81       	ld	r24, Z
     e1a:	81 11       	cpse	r24, r1
     e1c:	d4 cf       	rjmp	.-88     	; 0xdc6 <_ZN9OrangeBot5Servo19hal_timer_set_delayEj+0x32>
     e1e:	85 e0       	ldi	r24, 0x05	; 5
     e20:	80 83       	st	Z, r24
     e22:	c4 59       	subi	r28, 0x94	; 148
     e24:	df 4f       	sbci	r29, 0xFF	; 255
     e26:	8b e4       	ldi	r24, 0x4B	; 75
     e28:	95 e0       	ldi	r25, 0x05	; 5
     e2a:	cb cf       	rjmp	.-106    	; 0xdc2 <_ZN9OrangeBot5Servo19hal_timer_set_delayEj+0x2e>
     e2c:	20 93 26 0a 	sts	0x0A26, r18	; 0x800a26 <__TEXT_REGION_LENGTH__+0x7f4a26>
     e30:	30 93 27 0a 	sts	0x0A27, r19	; 0x800a27 <__TEXT_REGION_LENGTH__+0x7f4a27>
     e34:	80 91 00 0a 	lds	r24, 0x0A00	; 0x800a00 <__TEXT_REGION_LENGTH__+0x7f4a00>
     e38:	81 60       	ori	r24, 0x01	; 1
     e3a:	80 93 00 0a 	sts	0x0A00, r24	; 0x800a00 <__TEXT_REGION_LENGTH__+0x7f4a00>
     e3e:	80 e0       	ldi	r24, 0x00	; 0
     e40:	df 91       	pop	r29
     e42:	cf 91       	pop	r28
     e44:	1f 91       	pop	r17
     e46:	0f 91       	pop	r16
     e48:	08 95       	ret

00000e4a <_ZN9OrangeBot5Servo11hal_run_isrEb>:
     e4a:	61 11       	cpse	r22, r1
     e4c:	04 c0       	rjmp	.+8      	; 0xe56 <_ZN9OrangeBot5Servo11hal_run_isrEb+0xc>
     e4e:	80 91 00 0a 	lds	r24, 0x0A00	; 0x800a00 <__TEXT_REGION_LENGTH__+0x7f4a00>
     e52:	8e 7f       	andi	r24, 0xFE	; 254
     e54:	09 c0       	rjmp	.+18     	; 0xe68 <_ZN9OrangeBot5Servo11hal_run_isrEb+0x1e>
     e56:	87 ea       	ldi	r24, 0xA7	; 167
     e58:	91 e6       	ldi	r25, 0x61	; 97
     e5a:	80 93 26 0a 	sts	0x0A26, r24	; 0x800a26 <__TEXT_REGION_LENGTH__+0x7f4a26>
     e5e:	90 93 27 0a 	sts	0x0A27, r25	; 0x800a27 <__TEXT_REGION_LENGTH__+0x7f4a27>
     e62:	80 91 00 0a 	lds	r24, 0x0A00	; 0x800a00 <__TEXT_REGION_LENGTH__+0x7f4a00>
     e66:	81 60       	ori	r24, 0x01	; 1
     e68:	80 93 00 0a 	sts	0x0A00, r24	; 0x800a00 <__TEXT_REGION_LENGTH__+0x7f4a00>
     e6c:	80 e0       	ldi	r24, 0x00	; 0
     e6e:	08 95       	ret

00000e70 <_ZN9OrangeBot5Servo15init_class_varsEv>:
     e70:	fc 01       	movw	r30, r24
     e72:	10 82       	st	Z, r1
     e74:	dc 01       	movw	r26, r24
     e76:	a7 59       	subi	r26, 0x97	; 151
     e78:	bf 4f       	sbci	r27, 0xFF	; 255
     e7a:	1d 92       	st	X+, r1
     e7c:	1c 92       	st	X, r1
     e7e:	11 97       	sbiw	r26, 0x01	; 1
     e80:	ac 01       	movw	r20, r24
     e82:	40 5c       	subi	r20, 0xC0	; 192
     e84:	5f 4f       	sbci	r21, 0xFF	; 255
     e86:	21 e0       	ldi	r18, 0x01	; 1
     e88:	11 82       	std	Z+1, r1	; 0x01
     e8a:	12 82       	std	Z+2, r1	; 0x02
     e8c:	13 82       	std	Z+3, r1	; 0x03
     e8e:	14 82       	std	Z+4, r1	; 0x04
     e90:	25 83       	std	Z+5, r18	; 0x05
     e92:	26 83       	std	Z+6, r18	; 0x06
     e94:	17 82       	std	Z+7, r1	; 0x07
     e96:	10 86       	std	Z+8, r1	; 0x08
     e98:	38 96       	adiw	r30, 0x08	; 8
     e9a:	e4 17       	cp	r30, r20
     e9c:	f5 07       	cpc	r31, r21
     e9e:	a1 f7       	brne	.-24     	; 0xe88 <_ZN9OrangeBot5Servo15init_class_varsEv+0x18>
     ea0:	fc 01       	movw	r30, r24
     ea2:	ef 5b       	subi	r30, 0xBF	; 191
     ea4:	ff 4f       	sbci	r31, 0xFF	; 255
     ea6:	8c ed       	ldi	r24, 0xDC	; 220
     ea8:	95 e0       	ldi	r25, 0x05	; 5
     eaa:	10 82       	st	Z, r1
     eac:	11 82       	std	Z+1, r1	; 0x01
     eae:	12 82       	std	Z+2, r1	; 0x02
     eb0:	83 83       	std	Z+3, r24	; 0x03
     eb2:	94 83       	std	Z+4, r25	; 0x04
     eb4:	35 96       	adiw	r30, 0x05	; 5
     eb6:	ea 17       	cp	r30, r26
     eb8:	fb 07       	cpc	r31, r27
     eba:	b9 f7       	brne	.-18     	; 0xeaa <_ZN9OrangeBot5Servo15init_class_varsEv+0x3a>
     ebc:	80 e0       	ldi	r24, 0x00	; 0
     ebe:	08 95       	ret

00000ec0 <_ZN9OrangeBot5Servo4initEv>:
     ec0:	1f 93       	push	r17
     ec2:	cf 93       	push	r28
     ec4:	df 93       	push	r29
     ec6:	ec 01       	movw	r28, r24
     ec8:	0e 94 38 07 	call	0xe70	; 0xe70 <_ZN9OrangeBot5Servo15init_class_varsEv>
     ecc:	18 2f       	mov	r17, r24
     ece:	88 23       	and	r24, r24
     ed0:	69 f0       	breq	.+26     	; 0xeec <_ZN9OrangeBot5Servo4initEv+0x2c>
     ed2:	fe 01       	movw	r30, r28
     ed4:	e5 59       	subi	r30, 0x95	; 149
     ed6:	ff 4f       	sbci	r31, 0xFF	; 255
     ed8:	80 81       	ld	r24, Z
     eda:	81 11       	cpse	r24, r1
     edc:	07 c0       	rjmp	.+14     	; 0xeec <_ZN9OrangeBot5Servo4initEv+0x2c>
     ede:	81 e0       	ldi	r24, 0x01	; 1
     ee0:	80 83       	st	Z, r24
     ee2:	8c eb       	ldi	r24, 0xBC	; 188
     ee4:	92 e0       	ldi	r25, 0x02	; 2
     ee6:	31 96       	adiw	r30, 0x01	; 1
     ee8:	80 83       	st	Z, r24
     eea:	91 83       	std	Z+1, r25	; 0x01
     eec:	ce 01       	movw	r24, r28
     eee:	0e 94 4f 06 	call	0xc9e	; 0xc9e <_ZN9OrangeBot5Servo11hal_init_ioEv>
     ef2:	18 2b       	or	r17, r24
     ef4:	69 f0       	breq	.+26     	; 0xf10 <_ZN9OrangeBot5Servo4initEv+0x50>
     ef6:	fe 01       	movw	r30, r28
     ef8:	e5 59       	subi	r30, 0x95	; 149
     efa:	ff 4f       	sbci	r31, 0xFF	; 255
     efc:	80 81       	ld	r24, Z
     efe:	81 11       	cpse	r24, r1
     f00:	07 c0       	rjmp	.+14     	; 0xf10 <_ZN9OrangeBot5Servo4initEv+0x50>
     f02:	82 e0       	ldi	r24, 0x02	; 2
     f04:	80 83       	st	Z, r24
     f06:	83 ec       	ldi	r24, 0xC3	; 195
     f08:	92 e0       	ldi	r25, 0x02	; 2
     f0a:	31 96       	adiw	r30, 0x01	; 1
     f0c:	80 83       	st	Z, r24
     f0e:	91 83       	std	Z+1, r25	; 0x01
     f10:	60 e0       	ldi	r22, 0x00	; 0
     f12:	70 e0       	ldi	r23, 0x00	; 0
     f14:	ce 01       	movw	r24, r28
     f16:	0e 94 72 06 	call	0xce4	; 0xce4 <_ZN9OrangeBot5Servo25hal_init_ta0_timeout_modeEj>
     f1a:	81 2b       	or	r24, r17
     f1c:	71 f0       	breq	.+28     	; 0xf3a <_ZN9OrangeBot5Servo4initEv+0x7a>
     f1e:	fe 01       	movw	r30, r28
     f20:	e5 59       	subi	r30, 0x95	; 149
     f22:	ff 4f       	sbci	r31, 0xFF	; 255
     f24:	90 81       	ld	r25, Z
     f26:	91 11       	cpse	r25, r1
     f28:	08 c0       	rjmp	.+16     	; 0xf3a <_ZN9OrangeBot5Servo4initEv+0x7a>
     f2a:	93 e0       	ldi	r25, 0x03	; 3
     f2c:	90 83       	st	Z, r25
     f2e:	c4 59       	subi	r28, 0x94	; 148
     f30:	df 4f       	sbci	r29, 0xFF	; 255
     f32:	2a ec       	ldi	r18, 0xCA	; 202
     f34:	32 e0       	ldi	r19, 0x02	; 2
     f36:	28 83       	st	Y, r18
     f38:	39 83       	std	Y+1, r19	; 0x01
     f3a:	df 91       	pop	r29
     f3c:	cf 91       	pop	r28
     f3e:	1f 91       	pop	r17
     f40:	08 95       	ret

00000f42 <_ZN9OrangeBot5ServoC1Ev>:
     f42:	0c 94 60 07 	jmp	0xec0	; 0xec0 <_ZN9OrangeBot5Servo4initEv>

00000f46 <_ZN9OrangeBot5Servo10soft_startEhhhh>:
     f46:	0f 93       	push	r16
     f48:	24 17       	cp	r18, r20
     f4a:	20 f5       	brcc	.+72     	; 0xf94 <_ZN9OrangeBot5Servo10soft_startEhhhh+0x4e>
     f4c:	80 e0       	ldi	r24, 0x00	; 0
     f4e:	80 17       	cp	r24, r16
     f50:	f1 f0       	breq	.+60     	; 0xf8e <_ZN9OrangeBot5Servo10soft_startEhhhh+0x48>
     f52:	90 91 64 04 	lds	r25, 0x0464	; 0x800464 <__TEXT_REGION_LENGTH__+0x7f4464>
     f56:	9f 77       	andi	r25, 0x7F	; 127
     f58:	90 93 64 04 	sts	0x0464, r25	; 0x800464 <__TEXT_REGION_LENGTH__+0x7f4464>
     f5c:	90 e0       	ldi	r25, 0x00	; 0
     f5e:	96 17       	cp	r25, r22
     f60:	31 f0       	breq	.+12     	; 0xf6e <_ZN9OrangeBot5Servo10soft_startEhhhh+0x28>
     f62:	36 e0       	ldi	r19, 0x06	; 6
     f64:	3a 95       	dec	r19
     f66:	f1 f7       	brne	.-4      	; 0xf64 <_ZN9OrangeBot5Servo10soft_startEhhhh+0x1e>
     f68:	00 c0       	rjmp	.+0      	; 0xf6a <_ZN9OrangeBot5Servo10soft_startEhhhh+0x24>
     f6a:	9f 5f       	subi	r25, 0xFF	; 255
     f6c:	f8 cf       	rjmp	.-16     	; 0xf5e <_ZN9OrangeBot5Servo10soft_startEhhhh+0x18>
     f6e:	90 91 64 04 	lds	r25, 0x0464	; 0x800464 <__TEXT_REGION_LENGTH__+0x7f4464>
     f72:	90 68       	ori	r25, 0x80	; 128
     f74:	90 93 64 04 	sts	0x0464, r25	; 0x800464 <__TEXT_REGION_LENGTH__+0x7f4464>
     f78:	90 e0       	ldi	r25, 0x00	; 0
     f7a:	94 17       	cp	r25, r20
     f7c:	31 f0       	breq	.+12     	; 0xf8a <_ZN9OrangeBot5Servo10soft_startEhhhh+0x44>
     f7e:	36 e0       	ldi	r19, 0x06	; 6
     f80:	3a 95       	dec	r19
     f82:	f1 f7       	brne	.-4      	; 0xf80 <_ZN9OrangeBot5Servo10soft_startEhhhh+0x3a>
     f84:	00 c0       	rjmp	.+0      	; 0xf86 <_ZN9OrangeBot5Servo10soft_startEhhhh+0x40>
     f86:	9f 5f       	subi	r25, 0xFF	; 255
     f88:	f8 cf       	rjmp	.-16     	; 0xf7a <_ZN9OrangeBot5Servo10soft_startEhhhh+0x34>
     f8a:	8f 5f       	subi	r24, 0xFF	; 255
     f8c:	e0 cf       	rjmp	.-64     	; 0xf4e <_ZN9OrangeBot5Servo10soft_startEhhhh+0x8>
     f8e:	62 0f       	add	r22, r18
     f90:	42 1b       	sub	r20, r18
     f92:	da cf       	rjmp	.-76     	; 0xf48 <_ZN9OrangeBot5Servo10soft_startEhhhh+0x2>
     f94:	80 91 64 04 	lds	r24, 0x0464	; 0x800464 <__TEXT_REGION_LENGTH__+0x7f4464>
     f98:	8f 77       	andi	r24, 0x7F	; 127
     f9a:	80 93 64 04 	sts	0x0464, r24	; 0x800464 <__TEXT_REGION_LENGTH__+0x7f4464>
     f9e:	80 e0       	ldi	r24, 0x00	; 0
     fa0:	0f 91       	pop	r16
     fa2:	08 95       	ret

00000fa4 <_ZN9OrangeBot5Servo5powerEb>:
     fa4:	0f 93       	push	r16
     fa6:	1f 93       	push	r17
     fa8:	cf 93       	push	r28
     faa:	df 93       	push	r29
     fac:	61 11       	cpse	r22, r1
     fae:	0c c0       	rjmp	.+24     	; 0xfc8 <_ZN9OrangeBot5Servo5powerEb+0x24>
     fb0:	80 91 64 04 	lds	r24, 0x0464	; 0x800464 <__TEXT_REGION_LENGTH__+0x7f4464>
     fb4:	80 68       	ori	r24, 0x80	; 128
     fb6:	80 93 64 04 	sts	0x0464, r24	; 0x800464 <__TEXT_REGION_LENGTH__+0x7f4464>
     fba:	80 91 00 0a 	lds	r24, 0x0A00	; 0x800a00 <__TEXT_REGION_LENGTH__+0x7f4a00>
     fbe:	8e 7f       	andi	r24, 0xFE	; 254
     fc0:	80 93 00 0a 	sts	0x0A00, r24	; 0x800a00 <__TEXT_REGION_LENGTH__+0x7f4a00>
     fc4:	10 e0       	ldi	r17, 0x00	; 0
     fc6:	0c c0       	rjmp	.+24     	; 0xfe0 <_ZN9OrangeBot5Servo5powerEb+0x3c>
     fc8:	ec 01       	movw	r28, r24
     fca:	02 e0       	ldi	r16, 0x02	; 2
     fcc:	21 e0       	ldi	r18, 0x01	; 1
     fce:	44 e6       	ldi	r20, 0x64	; 100
     fd0:	6a e0       	ldi	r22, 0x0A	; 10
     fd2:	0e 94 a3 07 	call	0xf46	; 0xf46 <_ZN9OrangeBot5Servo10soft_startEhhhh>
     fd6:	18 2f       	mov	r17, r24
     fd8:	61 e0       	ldi	r22, 0x01	; 1
     fda:	ce 01       	movw	r24, r28
     fdc:	0e 94 25 07 	call	0xe4a	; 0xe4a <_ZN9OrangeBot5Servo11hal_run_isrEb>
     fe0:	81 2f       	mov	r24, r17
     fe2:	df 91       	pop	r29
     fe4:	cf 91       	pop	r28
     fe6:	1f 91       	pop	r17
     fe8:	0f 91       	pop	r16
     fea:	08 95       	ret

00000fec <_ZN9OrangeBot5Servo14clear_servo_ioEv>:
     fec:	0f 93       	push	r16
     fee:	1f 93       	push	r17
     ff0:	cf 93       	push	r28
     ff2:	df 93       	push	r29
     ff4:	8c 01       	movw	r16, r24
     ff6:	c0 e0       	ldi	r28, 0x00	; 0
     ff8:	d0 e0       	ldi	r29, 0x00	; 0
     ffa:	40 e0       	ldi	r20, 0x00	; 0
     ffc:	6c 2f       	mov	r22, r28
     ffe:	c8 01       	movw	r24, r16
    1000:	0e 94 f6 05 	call	0xbec	; 0xbec <_ZN9OrangeBot5Servo12hal_servo_ioEhb>
    1004:	d8 2b       	or	r29, r24
    1006:	cf 5f       	subi	r28, 0xFF	; 255
    1008:	c8 30       	cpi	r28, 0x08	; 8
    100a:	b9 f7       	brne	.-18     	; 0xffa <_ZN9OrangeBot5Servo14clear_servo_ioEv+0xe>
    100c:	8d 2f       	mov	r24, r29
    100e:	df 91       	pop	r29
    1010:	cf 91       	pop	r28
    1012:	1f 91       	pop	r17
    1014:	0f 91       	pop	r16
    1016:	08 95       	ret

00001018 <_ZN9OrangeBot5Servo14emergency_stopEv>:
    1018:	1f 93       	push	r17
    101a:	cf 93       	push	r28
    101c:	df 93       	push	r29
    101e:	ec 01       	movw	r28, r24
    1020:	e0 e0       	ldi	r30, 0x00	; 0
    1022:	fa e0       	ldi	r31, 0x0A	; 10
    1024:	80 81       	ld	r24, Z
    1026:	8e 7f       	andi	r24, 0xFE	; 254
    1028:	80 83       	st	Z, r24
    102a:	ce 01       	movw	r24, r28
    102c:	0e 94 f6 07 	call	0xfec	; 0xfec <_ZN9OrangeBot5Servo14clear_servo_ioEv>
    1030:	18 2f       	mov	r17, r24
    1032:	ce 01       	movw	r24, r28
    1034:	0e 94 38 07 	call	0xe70	; 0xe70 <_ZN9OrangeBot5Servo15init_class_varsEv>
    1038:	81 2b       	or	r24, r17
    103a:	df 91       	pop	r29
    103c:	cf 91       	pop	r28
    103e:	1f 91       	pop	r17
    1040:	08 95       	ret

00001042 <_ZN9OrangeBot5Servo19compute_servo_delayEhRj>:
    1042:	cf 92       	push	r12
    1044:	df 92       	push	r13
    1046:	ef 92       	push	r14
    1048:	ff 92       	push	r15
    104a:	0f 93       	push	r16
    104c:	1f 93       	push	r17
    104e:	cf 93       	push	r28
    1050:	df 93       	push	r29
    1052:	9c 01       	movw	r18, r24
    1054:	6a 01       	movw	r12, r20
    1056:	68 30       	cpi	r22, 0x08	; 8
    1058:	a0 f0       	brcs	.+40     	; 0x1082 <_ZN9OrangeBot5Servo19compute_servo_delayEhRj+0x40>
    105a:	fc 01       	movw	r30, r24
    105c:	e5 59       	subi	r30, 0x95	; 149
    105e:	ff 4f       	sbci	r31, 0xFF	; 255
    1060:	80 81       	ld	r24, Z
    1062:	81 11       	cpse	r24, r1
    1064:	07 c0       	rjmp	.+14     	; 0x1074 <_ZN9OrangeBot5Servo19compute_servo_delayEhRj+0x32>
    1066:	87 e0       	ldi	r24, 0x07	; 7
    1068:	80 83       	st	Z, r24
    106a:	31 96       	adiw	r30, 0x01	; 1
    106c:	88 eb       	ldi	r24, 0xB8	; 184
    106e:	96 e0       	ldi	r25, 0x06	; 6
    1070:	80 83       	st	Z, r24
    1072:	91 83       	std	Z+1, r25	; 0x01
    1074:	8f ef       	ldi	r24, 0xFF	; 255
    1076:	9f ef       	ldi	r25, 0xFF	; 255
    1078:	d6 01       	movw	r26, r12
    107a:	8d 93       	st	X+, r24
    107c:	9c 93       	st	X, r25
    107e:	81 e0       	ldi	r24, 0x01	; 1
    1080:	1d c1       	rjmp	.+570    	; 0x12bc <_ZN9OrangeBot5Servo19compute_servo_delayEhRj+0x27a>
    1082:	06 2f       	mov	r16, r22
    1084:	10 e0       	ldi	r17, 0x00	; 0
    1086:	f8 01       	movw	r30, r16
    1088:	83 e0       	ldi	r24, 0x03	; 3
    108a:	ee 0f       	add	r30, r30
    108c:	ff 1f       	adc	r31, r31
    108e:	8a 95       	dec	r24
    1090:	e1 f7       	brne	.-8      	; 0x108a <_ZN9OrangeBot5Servo19compute_servo_delayEhRj+0x48>
    1092:	a9 01       	movw	r20, r18
    1094:	4e 0f       	add	r20, r30
    1096:	5f 1f       	adc	r21, r31
    1098:	ea 01       	movw	r28, r20
    109a:	8d 81       	ldd	r24, Y+5	; 0x05
    109c:	88 23       	and	r24, r24
    109e:	29 f1       	breq	.+74     	; 0x10ea <_ZN9OrangeBot5Servo19compute_servo_delayEhRj+0xa8>
    10a0:	89 81       	ldd	r24, Y+1	; 0x01
    10a2:	9a 81       	ldd	r25, Y+2	; 0x02
    10a4:	bc 01       	movw	r22, r24
    10a6:	60 57       	subi	r22, 0x70	; 112
    10a8:	7e 4f       	sbci	r23, 0xFE	; 254
    10aa:	61 32       	cpi	r22, 0x21	; 33
    10ac:	73 40       	sbci	r23, 0x03	; 3
    10ae:	60 f0       	brcs	.+24     	; 0x10c8 <_ZN9OrangeBot5Servo19compute_servo_delayEhRj+0x86>
    10b0:	f9 01       	movw	r30, r18
    10b2:	e5 59       	subi	r30, 0x95	; 149
    10b4:	ff 4f       	sbci	r31, 0xFF	; 255
    10b6:	80 81       	ld	r24, Z
    10b8:	81 11       	cpse	r24, r1
    10ba:	dc cf       	rjmp	.-72     	; 0x1074 <_ZN9OrangeBot5Servo19compute_servo_delayEhRj+0x32>
    10bc:	88 e0       	ldi	r24, 0x08	; 8
    10be:	80 83       	st	Z, r24
    10c0:	31 96       	adiw	r30, 0x01	; 1
    10c2:	8a ec       	ldi	r24, 0xCA	; 202
    10c4:	96 e0       	ldi	r25, 0x06	; 6
    10c6:	d4 cf       	rjmp	.-88     	; 0x1070 <_ZN9OrangeBot5Servo19compute_servo_delayEhRj+0x2e>
    10c8:	65 e0       	ldi	r22, 0x05	; 5
    10ca:	60 9f       	mul	r22, r16
    10cc:	d0 01       	movw	r26, r0
    10ce:	61 9f       	mul	r22, r17
    10d0:	b0 0d       	add	r27, r0
    10d2:	11 24       	eor	r1, r1
    10d4:	a2 0f       	add	r26, r18
    10d6:	b3 1f       	adc	r27, r19
    10d8:	af 5b       	subi	r26, 0xBF	; 191
    10da:	bf 4f       	sbci	r27, 0xFF	; 255
    10dc:	84 52       	subi	r24, 0x24	; 36
    10de:	9a 4f       	sbci	r25, 0xFA	; 250
    10e0:	8d 93       	st	X+, r24
    10e2:	9c 93       	st	X, r25
    10e4:	da 01       	movw	r26, r20
    10e6:	15 96       	adiw	r26, 0x05	; 5
    10e8:	1c 92       	st	X, r1
    10ea:	d9 01       	movw	r26, r18
    10ec:	ae 0f       	add	r26, r30
    10ee:	bf 1f       	adc	r27, r31
    10f0:	16 96       	adiw	r26, 0x06	; 6
    10f2:	8c 91       	ld	r24, X
    10f4:	16 97       	sbiw	r26, 0x06	; 6
    10f6:	88 23       	and	r24, r24
    10f8:	c9 f1       	breq	.+114    	; 0x116c <_ZN9OrangeBot5Servo19compute_servo_delayEhRj+0x12a>
    10fa:	13 96       	adiw	r26, 0x03	; 3
    10fc:	8d 91       	ld	r24, X+
    10fe:	9c 91       	ld	r25, X
    1100:	14 97       	sbiw	r26, 0x04	; 4
    1102:	00 97       	sbiw	r24, 0x00	; 0
    1104:	69 f4       	brne	.+26     	; 0x1120 <_ZN9OrangeBot5Servo19compute_servo_delayEhRj+0xde>
    1106:	85 e0       	ldi	r24, 0x05	; 5
    1108:	80 9f       	mul	r24, r16
    110a:	d0 01       	movw	r26, r0
    110c:	81 9f       	mul	r24, r17
    110e:	b0 0d       	add	r27, r0
    1110:	11 24       	eor	r1, r1
    1112:	a2 0f       	add	r26, r18
    1114:	b3 1f       	adc	r27, r19
    1116:	ad 5b       	subi	r26, 0xBD	; 189
    1118:	bf 4f       	sbci	r27, 0xFF	; 255
    111a:	1c 92       	st	X, r1
    111c:	70 e0       	ldi	r23, 0x00	; 0
    111e:	20 c0       	rjmp	.+64     	; 0x1160 <_ZN9OrangeBot5Servo19compute_servo_delayEhRj+0x11e>
    1120:	62 e3       	ldi	r22, 0x32	; 50
    1122:	70 e0       	ldi	r23, 0x00	; 0
    1124:	0e 94 0b 0a 	call	0x1416	; 0x1416 <__udivmodhi4>
    1128:	6f 3f       	cpi	r22, 0xFF	; 255
    112a:	71 05       	cpc	r23, r1
    112c:	69 f0       	breq	.+26     	; 0x1148 <_ZN9OrangeBot5Servo19compute_servo_delayEhRj+0x106>
    112e:	60 f0       	brcs	.+24     	; 0x1148 <_ZN9OrangeBot5Servo19compute_servo_delayEhRj+0x106>
    1130:	f9 01       	movw	r30, r18
    1132:	e5 59       	subi	r30, 0x95	; 149
    1134:	ff 4f       	sbci	r31, 0xFF	; 255
    1136:	80 81       	ld	r24, Z
    1138:	81 11       	cpse	r24, r1
    113a:	9c cf       	rjmp	.-200    	; 0x1074 <_ZN9OrangeBot5Servo19compute_servo_delayEhRj+0x32>
    113c:	86 e0       	ldi	r24, 0x06	; 6
    113e:	80 83       	st	Z, r24
    1140:	31 96       	adiw	r30, 0x01	; 1
    1142:	88 ee       	ldi	r24, 0xE8	; 232
    1144:	96 e0       	ldi	r25, 0x06	; 6
    1146:	94 cf       	rjmp	.-216    	; 0x1070 <_ZN9OrangeBot5Servo19compute_servo_delayEhRj+0x2e>
    1148:	76 2f       	mov	r23, r22
    114a:	85 e0       	ldi	r24, 0x05	; 5
    114c:	80 9f       	mul	r24, r16
    114e:	d0 01       	movw	r26, r0
    1150:	81 9f       	mul	r24, r17
    1152:	b0 0d       	add	r27, r0
    1154:	11 24       	eor	r1, r1
    1156:	a2 0f       	add	r26, r18
    1158:	b3 1f       	adc	r27, r19
    115a:	ad 5b       	subi	r26, 0xBD	; 189
    115c:	bf 4f       	sbci	r27, 0xFF	; 255
    115e:	6c 93       	st	X, r22
    1160:	d9 01       	movw	r26, r18
    1162:	ae 0f       	add	r26, r30
    1164:	bf 1f       	adc	r27, r31
    1166:	16 96       	adiw	r26, 0x06	; 6
    1168:	1c 92       	st	X, r1
    116a:	0b c0       	rjmp	.+22     	; 0x1182 <_ZN9OrangeBot5Servo19compute_servo_delayEhRj+0x140>
    116c:	85 e0       	ldi	r24, 0x05	; 5
    116e:	80 9f       	mul	r24, r16
    1170:	d0 01       	movw	r26, r0
    1172:	81 9f       	mul	r24, r17
    1174:	b0 0d       	add	r27, r0
    1176:	11 24       	eor	r1, r1
    1178:	a2 0f       	add	r26, r18
    117a:	b3 1f       	adc	r27, r19
    117c:	ad 5b       	subi	r26, 0xBD	; 189
    117e:	bf 4f       	sbci	r27, 0xFF	; 255
    1180:	7c 91       	ld	r23, X
    1182:	85 e0       	ldi	r24, 0x05	; 5
    1184:	80 9f       	mul	r24, r16
    1186:	70 01       	movw	r14, r0
    1188:	81 9f       	mul	r24, r17
    118a:	f0 0c       	add	r15, r0
    118c:	11 24       	eor	r1, r1
    118e:	e2 0e       	add	r14, r18
    1190:	f3 1e       	adc	r15, r19
    1192:	d7 01       	movw	r26, r14
    1194:	af 5b       	subi	r26, 0xBF	; 191
    1196:	bf 4f       	sbci	r27, 0xFF	; 255
    1198:	0d 90       	ld	r0, X+
    119a:	bc 91       	ld	r27, X
    119c:	a0 2d       	mov	r26, r0
    119e:	c4 e4       	ldi	r28, 0x44	; 68
    11a0:	ec 0e       	add	r14, r28
    11a2:	f1 1c       	adc	r15, r1
    11a4:	e7 01       	movw	r28, r14
    11a6:	48 81       	ld	r20, Y
    11a8:	59 81       	ldd	r21, Y+1	; 0x01
    11aa:	c8 01       	movw	r24, r16
    11ac:	01 96       	adiw	r24, 0x01	; 1
    11ae:	71 11       	cpse	r23, r1
    11b0:	11 c0       	rjmp	.+34     	; 0x11d4 <_ZN9OrangeBot5Servo19compute_servo_delayEhRj+0x192>
    11b2:	d3 e0       	ldi	r29, 0x03	; 3
    11b4:	88 0f       	add	r24, r24
    11b6:	99 1f       	adc	r25, r25
    11b8:	da 95       	dec	r29
    11ba:	e1 f7       	brne	.-8      	; 0x11b4 <_ZN9OrangeBot5Servo19compute_servo_delayEhRj+0x172>
    11bc:	82 0f       	add	r24, r18
    11be:	93 1f       	adc	r25, r19
    11c0:	a4 17       	cp	r26, r20
    11c2:	b5 07       	cpc	r27, r21
    11c4:	89 f0       	breq	.+34     	; 0x11e8 <_ZN9OrangeBot5Servo19compute_servo_delayEhRj+0x1a6>
    11c6:	ec 01       	movw	r28, r24
    11c8:	18 82       	st	Y, r1
    11ca:	e2 0f       	add	r30, r18
    11cc:	f3 1f       	adc	r31, r19
    11ce:	17 82       	std	Z+7, r1	; 0x07
    11d0:	f7 01       	movw	r30, r14
    11d2:	5c c0       	rjmp	.+184    	; 0x128c <_ZN9OrangeBot5Servo19compute_servo_delayEhRj+0x24a>
    11d4:	a4 17       	cp	r26, r20
    11d6:	b5 07       	cpc	r27, r21
    11d8:	71 f4       	brne	.+28     	; 0x11f6 <_ZN9OrangeBot5Servo19compute_servo_delayEhRj+0x1b4>
    11da:	c3 e0       	ldi	r28, 0x03	; 3
    11dc:	88 0f       	add	r24, r24
    11de:	99 1f       	adc	r25, r25
    11e0:	ca 95       	dec	r28
    11e2:	e1 f7       	brne	.-8      	; 0x11dc <_ZN9OrangeBot5Servo19compute_servo_delayEhRj+0x19a>
    11e4:	82 0f       	add	r24, r18
    11e6:	93 1f       	adc	r25, r19
    11e8:	41 e0       	ldi	r20, 0x01	; 1
    11ea:	ec 01       	movw	r28, r24
    11ec:	48 83       	st	Y, r20
    11ee:	e2 0f       	add	r30, r18
    11f0:	f3 1f       	adc	r31, r19
    11f2:	47 83       	std	Z+7, r20	; 0x07
    11f4:	4d c0       	rjmp	.+154    	; 0x1290 <_ZN9OrangeBot5Servo19compute_servo_delayEhRj+0x24e>
    11f6:	4a 17       	cp	r20, r26
    11f8:	5b 07       	cpc	r21, r27
    11fa:	20 f4       	brcc	.+8      	; 0x1204 <_ZN9OrangeBot5Servo19compute_servo_delayEhRj+0x1c2>
    11fc:	7d 01       	movw	r14, r26
    11fe:	e4 1a       	sub	r14, r20
    1200:	f5 0a       	sbc	r15, r21
    1202:	03 c0       	rjmp	.+6      	; 0x120a <_ZN9OrangeBot5Servo19compute_servo_delayEhRj+0x1c8>
    1204:	7a 01       	movw	r14, r20
    1206:	ea 1a       	sub	r14, r26
    1208:	fb 0a       	sbc	r15, r27
    120a:	67 2f       	mov	r22, r23
    120c:	70 e0       	ldi	r23, 0x00	; 0
    120e:	e2 0f       	add	r30, r18
    1210:	f3 1f       	adc	r31, r19
    1212:	e6 16       	cp	r14, r22
    1214:	f7 06       	cpc	r15, r23
    1216:	60 f4       	brcc	.+24     	; 0x1230 <_ZN9OrangeBot5Servo19compute_servo_delayEhRj+0x1ee>
    1218:	41 e0       	ldi	r20, 0x01	; 1
    121a:	47 83       	std	Z+7, r20	; 0x07
    121c:	f3 e0       	ldi	r31, 0x03	; 3
    121e:	88 0f       	add	r24, r24
    1220:	99 1f       	adc	r25, r25
    1222:	fa 95       	dec	r31
    1224:	e1 f7       	brne	.-8      	; 0x121e <_ZN9OrangeBot5Servo19compute_servo_delayEhRj+0x1dc>
    1226:	f9 01       	movw	r30, r18
    1228:	e8 0f       	add	r30, r24
    122a:	f9 1f       	adc	r31, r25
    122c:	10 82       	st	Z, r1
    122e:	24 c0       	rjmp	.+72     	; 0x1278 <_ZN9OrangeBot5Servo19compute_servo_delayEhRj+0x236>
    1230:	17 82       	std	Z+7, r1	; 0x07
    1232:	e3 e0       	ldi	r30, 0x03	; 3
    1234:	88 0f       	add	r24, r24
    1236:	99 1f       	adc	r25, r25
    1238:	ea 95       	dec	r30
    123a:	e1 f7       	brne	.-8      	; 0x1234 <_ZN9OrangeBot5Servo19compute_servo_delayEhRj+0x1f2>
    123c:	f9 01       	movw	r30, r18
    123e:	e8 0f       	add	r30, r24
    1240:	f9 1f       	adc	r31, r25
    1242:	10 82       	st	Z, r1
    1244:	4a 17       	cp	r20, r26
    1246:	5b 07       	cpc	r21, r27
    1248:	20 f4       	brcc	.+8      	; 0x1252 <_ZN9OrangeBot5Servo19compute_servo_delayEhRj+0x210>
    124a:	da 01       	movw	r26, r20
    124c:	a6 0f       	add	r26, r22
    124e:	b7 1f       	adc	r27, r23
    1250:	13 c0       	rjmp	.+38     	; 0x1278 <_ZN9OrangeBot5Servo19compute_servo_delayEhRj+0x236>
    1252:	a4 17       	cp	r26, r20
    1254:	b5 07       	cpc	r27, r21
    1256:	20 f4       	brcc	.+8      	; 0x1260 <_ZN9OrangeBot5Servo19compute_servo_delayEhRj+0x21e>
    1258:	da 01       	movw	r26, r20
    125a:	a6 1b       	sub	r26, r22
    125c:	b7 0b       	sbc	r27, r23
    125e:	0c c0       	rjmp	.+24     	; 0x1278 <_ZN9OrangeBot5Servo19compute_servo_delayEhRj+0x236>
    1260:	f9 01       	movw	r30, r18
    1262:	e5 59       	subi	r30, 0x95	; 149
    1264:	ff 4f       	sbci	r31, 0xFF	; 255
    1266:	80 81       	ld	r24, Z
    1268:	81 11       	cpse	r24, r1
    126a:	04 cf       	rjmp	.-504    	; 0x1074 <_ZN9OrangeBot5Servo19compute_servo_delayEhRj+0x32>
    126c:	88 e0       	ldi	r24, 0x08	; 8
    126e:	80 83       	st	Z, r24
    1270:	31 96       	adiw	r30, 0x01	; 1
    1272:	8b e4       	ldi	r24, 0x4B	; 75
    1274:	97 e0       	ldi	r25, 0x07	; 7
    1276:	fc ce       	rjmp	.-520    	; 0x1070 <_ZN9OrangeBot5Servo19compute_servo_delayEhRj+0x2e>
    1278:	85 e0       	ldi	r24, 0x05	; 5
    127a:	80 9f       	mul	r24, r16
    127c:	f0 01       	movw	r30, r0
    127e:	81 9f       	mul	r24, r17
    1280:	f0 0d       	add	r31, r0
    1282:	11 24       	eor	r1, r1
    1284:	e2 0f       	add	r30, r18
    1286:	f3 1f       	adc	r31, r19
    1288:	ec 5b       	subi	r30, 0xBC	; 188
    128a:	ff 4f       	sbci	r31, 0xFF	; 255
    128c:	a0 83       	st	Z, r26
    128e:	b1 83       	std	Z+1, r27	; 0x01
    1290:	cd 01       	movw	r24, r26
    1292:	8c 54       	subi	r24, 0x4C	; 76
    1294:	94 40       	sbci	r25, 0x04	; 4
    1296:	81 32       	cpi	r24, 0x21	; 33
    1298:	93 40       	sbci	r25, 0x03	; 3
    129a:	60 f0       	brcs	.+24     	; 0x12b4 <_ZN9OrangeBot5Servo19compute_servo_delayEhRj+0x272>
    129c:	f9 01       	movw	r30, r18
    129e:	e5 59       	subi	r30, 0x95	; 149
    12a0:	ff 4f       	sbci	r31, 0xFF	; 255
    12a2:	80 81       	ld	r24, Z
    12a4:	81 11       	cpse	r24, r1
    12a6:	e6 ce       	rjmp	.-564    	; 0x1074 <_ZN9OrangeBot5Servo19compute_servo_delayEhRj+0x32>
    12a8:	88 e0       	ldi	r24, 0x08	; 8
    12aa:	80 83       	st	Z, r24
    12ac:	31 96       	adiw	r30, 0x01	; 1
    12ae:	88 e5       	ldi	r24, 0x58	; 88
    12b0:	97 e0       	ldi	r25, 0x07	; 7
    12b2:	de ce       	rjmp	.-580    	; 0x1070 <_ZN9OrangeBot5Servo19compute_servo_delayEhRj+0x2e>
    12b4:	f6 01       	movw	r30, r12
    12b6:	a0 83       	st	Z, r26
    12b8:	b1 83       	std	Z+1, r27	; 0x01
    12ba:	80 e0       	ldi	r24, 0x00	; 0
    12bc:	df 91       	pop	r29
    12be:	cf 91       	pop	r28
    12c0:	1f 91       	pop	r17
    12c2:	0f 91       	pop	r16
    12c4:	ff 90       	pop	r15
    12c6:	ef 90       	pop	r14
    12c8:	df 90       	pop	r13
    12ca:	cf 90       	pop	r12
    12cc:	08 95       	ret

000012ce <_ZN9OrangeBot5Servo13hal_timer_isrEv>:
    12ce:	cf 92       	push	r12
    12d0:	df 92       	push	r13
    12d2:	ff 92       	push	r15
    12d4:	0f 93       	push	r16
    12d6:	1f 93       	push	r17
    12d8:	cf 93       	push	r28
    12da:	df 93       	push	r29
    12dc:	00 d0       	rcall	.+0      	; 0x12de <_ZN9OrangeBot5Servo13hal_timer_isrEv+0x10>
    12de:	cd b7       	in	r28, 0x3d	; 61
    12e0:	de b7       	in	r29, 0x3e	; 62
    12e2:	8c 01       	movw	r16, r24
    12e4:	fc 01       	movw	r30, r24
    12e6:	f0 80       	ld	r15, Z
    12e8:	f1 10       	cpse	r15, r1
    12ea:	05 c0       	rjmp	.+10     	; 0x12f6 <_ZN9OrangeBot5Servo13hal_timer_isrEv+0x28>
    12ec:	41 e0       	ldi	r20, 0x01	; 1
    12ee:	60 e0       	ldi	r22, 0x00	; 0
    12f0:	0e 94 f6 05 	call	0xbec	; 0xbec <_ZN9OrangeBot5Servo12hal_servo_ioEhb>
    12f4:	0f c0       	rjmp	.+30     	; 0x1314 <_ZN9OrangeBot5Servo13hal_timer_isrEv+0x46>
    12f6:	6f ef       	ldi	r22, 0xFF	; 255
    12f8:	6f 0d       	add	r22, r15
    12fa:	67 30       	cpi	r22, 0x07	; 7
    12fc:	70 f4       	brcc	.+28     	; 0x131a <_ZN9OrangeBot5Servo13hal_timer_isrEv+0x4c>
    12fe:	40 e0       	ldi	r20, 0x00	; 0
    1300:	0e 94 f6 05 	call	0xbec	; 0xbec <_ZN9OrangeBot5Servo12hal_servo_ioEhb>
    1304:	d8 2e       	mov	r13, r24
    1306:	41 e0       	ldi	r20, 0x01	; 1
    1308:	6f 2d       	mov	r22, r15
    130a:	c8 01       	movw	r24, r16
    130c:	0e 94 f6 05 	call	0xbec	; 0xbec <_ZN9OrangeBot5Servo12hal_servo_ioEhb>
    1310:	d1 10       	cpse	r13, r1
    1312:	68 c0       	rjmp	.+208    	; 0x13e4 <_ZN9OrangeBot5Servo13hal_timer_isrEv+0x116>
    1314:	88 23       	and	r24, r24
    1316:	51 f0       	breq	.+20     	; 0x132c <_ZN9OrangeBot5Servo13hal_timer_isrEv+0x5e>
    1318:	65 c0       	rjmp	.+202    	; 0x13e4 <_ZN9OrangeBot5Servo13hal_timer_isrEv+0x116>
    131a:	f8 e0       	ldi	r31, 0x08	; 8
    131c:	ff 12       	cpse	r15, r31
    131e:	62 c0       	rjmp	.+196    	; 0x13e4 <_ZN9OrangeBot5Servo13hal_timer_isrEv+0x116>
    1320:	40 e0       	ldi	r20, 0x00	; 0
    1322:	0e 94 f6 05 	call	0xbec	; 0xbec <_ZN9OrangeBot5Servo12hal_servo_ioEhb>
    1326:	88 23       	and	r24, r24
    1328:	41 f1       	breq	.+80     	; 0x137a <_ZN9OrangeBot5Servo13hal_timer_isrEv+0xac>
    132a:	5c c0       	rjmp	.+184    	; 0x13e4 <_ZN9OrangeBot5Servo13hal_timer_isrEv+0x116>
    132c:	f8 01       	movw	r30, r16
    132e:	e7 59       	subi	r30, 0x97	; 151
    1330:	ff 4f       	sbci	r31, 0xFF	; 255
    1332:	c0 80       	ld	r12, Z
    1334:	d1 80       	ldd	r13, Z+1	; 0x01
    1336:	ae 01       	movw	r20, r28
    1338:	4f 5f       	subi	r20, 0xFF	; 255
    133a:	5f 4f       	sbci	r21, 0xFF	; 255
    133c:	6f 2d       	mov	r22, r15
    133e:	c8 01       	movw	r24, r16
    1340:	0e 94 21 08 	call	0x1042	; 0x1042 <_ZN9OrangeBot5Servo19compute_servo_delayEhRj>
    1344:	29 81       	ldd	r18, Y+1	; 0x01
    1346:	3a 81       	ldd	r19, Y+2	; 0x02
    1348:	a9 01       	movw	r20, r18
    134a:	4c 54       	subi	r20, 0x4C	; 76
    134c:	54 40       	sbci	r21, 0x04	; 4
    134e:	41 32       	cpi	r20, 0x21	; 33
    1350:	53 40       	sbci	r21, 0x03	; 3
    1352:	70 f0       	brcs	.+28     	; 0x1370 <_ZN9OrangeBot5Servo13hal_timer_isrEv+0xa2>
    1354:	f8 01       	movw	r30, r16
    1356:	e5 59       	subi	r30, 0x95	; 149
    1358:	ff 4f       	sbci	r31, 0xFF	; 255
    135a:	80 81       	ld	r24, Z
    135c:	81 11       	cpse	r24, r1
    135e:	34 c0       	rjmp	.+104    	; 0x13c8 <_ZN9OrangeBot5Servo13hal_timer_isrEv+0xfa>
    1360:	88 e0       	ldi	r24, 0x08	; 8
    1362:	80 83       	st	Z, r24
    1364:	31 96       	adiw	r30, 0x01	; 1
    1366:	80 e9       	ldi	r24, 0x90	; 144
    1368:	93 e0       	ldi	r25, 0x03	; 3
    136a:	80 83       	st	Z, r24
    136c:	91 83       	std	Z+1, r25	; 0x01
    136e:	2c c0       	rjmp	.+88     	; 0x13c8 <_ZN9OrangeBot5Servo13hal_timer_isrEv+0xfa>
    1370:	c2 0e       	add	r12, r18
    1372:	d3 1e       	adc	r13, r19
    1374:	88 23       	and	r24, r24
    1376:	91 f0       	breq	.+36     	; 0x139c <_ZN9OrangeBot5Servo13hal_timer_isrEv+0xce>
    1378:	35 c0       	rjmp	.+106    	; 0x13e4 <_ZN9OrangeBot5Servo13hal_timer_isrEv+0x116>
    137a:	f8 01       	movw	r30, r16
    137c:	e7 59       	subi	r30, 0x97	; 151
    137e:	ff 4f       	sbci	r31, 0xFF	; 255
    1380:	20 81       	ld	r18, Z
    1382:	31 81       	ldd	r19, Z+1	; 0x01
    1384:	20 32       	cpi	r18, 0x20	; 32
    1386:	fe e4       	ldi	r31, 0x4E	; 78
    1388:	3f 07       	cpc	r19, r31
    138a:	00 f5       	brcc	.+64     	; 0x13cc <_ZN9OrangeBot5Servo13hal_timer_isrEv+0xfe>
    138c:	80 e2       	ldi	r24, 0x20	; 32
    138e:	9e e4       	ldi	r25, 0x4E	; 78
    1390:	82 1b       	sub	r24, r18
    1392:	93 0b       	sbc	r25, r19
    1394:	89 83       	std	Y+1, r24	; 0x01
    1396:	9a 83       	std	Y+2, r25	; 0x02
    1398:	c1 2c       	mov	r12, r1
    139a:	d1 2c       	mov	r13, r1
    139c:	69 81       	ldd	r22, Y+1	; 0x01
    139e:	7a 81       	ldd	r23, Y+2	; 0x02
    13a0:	c8 01       	movw	r24, r16
    13a2:	0e 94 ca 06 	call	0xd94	; 0xd94 <_ZN9OrangeBot5Servo19hal_timer_set_delayEj>
    13a6:	81 11       	cpse	r24, r1
    13a8:	1d c0       	rjmp	.+58     	; 0x13e4 <_ZN9OrangeBot5Servo13hal_timer_isrEv+0x116>
    13aa:	f8 01       	movw	r30, r16
    13ac:	e7 59       	subi	r30, 0x97	; 151
    13ae:	ff 4f       	sbci	r31, 0xFF	; 255
    13b0:	c0 82       	st	Z, r12
    13b2:	d1 82       	std	Z+1, r13	; 0x01
    13b4:	e8 e0       	ldi	r30, 0x08	; 8
    13b6:	fe 16       	cp	r15, r30
    13b8:	11 f0       	breq	.+4      	; 0x13be <_ZN9OrangeBot5Servo13hal_timer_isrEv+0xf0>
    13ba:	f3 94       	inc	r15
    13bc:	01 c0       	rjmp	.+2      	; 0x13c0 <_ZN9OrangeBot5Servo13hal_timer_isrEv+0xf2>
    13be:	f1 2c       	mov	r15, r1
    13c0:	f8 01       	movw	r30, r16
    13c2:	f0 82       	st	Z, r15
    13c4:	80 e0       	ldi	r24, 0x00	; 0
    13c6:	11 c0       	rjmp	.+34     	; 0x13ea <_ZN9OrangeBot5Servo13hal_timer_isrEv+0x11c>
    13c8:	81 e0       	ldi	r24, 0x01	; 1
    13ca:	0f c0       	rjmp	.+30     	; 0x13ea <_ZN9OrangeBot5Servo13hal_timer_isrEv+0x11c>
    13cc:	f8 01       	movw	r30, r16
    13ce:	e5 59       	subi	r30, 0x95	; 149
    13d0:	ff 4f       	sbci	r31, 0xFF	; 255
    13d2:	80 81       	ld	r24, Z
    13d4:	81 11       	cpse	r24, r1
    13d6:	06 c0       	rjmp	.+12     	; 0x13e4 <_ZN9OrangeBot5Servo13hal_timer_isrEv+0x116>
    13d8:	f0 82       	st	Z, r15
    13da:	8c e9       	ldi	r24, 0x9C	; 156
    13dc:	93 e0       	ldi	r25, 0x03	; 3
    13de:	31 96       	adiw	r30, 0x01	; 1
    13e0:	80 83       	st	Z, r24
    13e2:	91 83       	std	Z+1, r25	; 0x01
    13e4:	c8 01       	movw	r24, r16
    13e6:	0e 94 0c 08 	call	0x1018	; 0x1018 <_ZN9OrangeBot5Servo14emergency_stopEv>
    13ea:	0f 90       	pop	r0
    13ec:	0f 90       	pop	r0
    13ee:	df 91       	pop	r29
    13f0:	cf 91       	pop	r28
    13f2:	1f 91       	pop	r17
    13f4:	0f 91       	pop	r16
    13f6:	ff 90       	pop	r15
    13f8:	df 90       	pop	r13
    13fa:	cf 90       	pop	r12
    13fc:	08 95       	ret

000013fe <__udivmodqi4>:
    13fe:	99 1b       	sub	r25, r25
    1400:	79 e0       	ldi	r23, 0x09	; 9
    1402:	04 c0       	rjmp	.+8      	; 0x140c <__udivmodqi4_ep>

00001404 <__udivmodqi4_loop>:
    1404:	99 1f       	adc	r25, r25
    1406:	96 17       	cp	r25, r22
    1408:	08 f0       	brcs	.+2      	; 0x140c <__udivmodqi4_ep>
    140a:	96 1b       	sub	r25, r22

0000140c <__udivmodqi4_ep>:
    140c:	88 1f       	adc	r24, r24
    140e:	7a 95       	dec	r23
    1410:	c9 f7       	brne	.-14     	; 0x1404 <__udivmodqi4_loop>
    1412:	80 95       	com	r24
    1414:	08 95       	ret

00001416 <__udivmodhi4>:
    1416:	aa 1b       	sub	r26, r26
    1418:	bb 1b       	sub	r27, r27
    141a:	51 e1       	ldi	r21, 0x11	; 17
    141c:	07 c0       	rjmp	.+14     	; 0x142c <__udivmodhi4_ep>

0000141e <__udivmodhi4_loop>:
    141e:	aa 1f       	adc	r26, r26
    1420:	bb 1f       	adc	r27, r27
    1422:	a6 17       	cp	r26, r22
    1424:	b7 07       	cpc	r27, r23
    1426:	10 f0       	brcs	.+4      	; 0x142c <__udivmodhi4_ep>
    1428:	a6 1b       	sub	r26, r22
    142a:	b7 0b       	sbc	r27, r23

0000142c <__udivmodhi4_ep>:
    142c:	88 1f       	adc	r24, r24
    142e:	99 1f       	adc	r25, r25
    1430:	5a 95       	dec	r21
    1432:	a9 f7       	brne	.-22     	; 0x141e <__udivmodhi4_loop>
    1434:	80 95       	com	r24
    1436:	90 95       	com	r25
    1438:	bc 01       	movw	r22, r24
    143a:	cd 01       	movw	r24, r26
    143c:	08 95       	ret

0000143e <__divmodhi4>:
    143e:	97 fb       	bst	r25, 7
    1440:	07 2e       	mov	r0, r23
    1442:	16 f4       	brtc	.+4      	; 0x1448 <__divmodhi4+0xa>
    1444:	00 94       	com	r0
    1446:	07 d0       	rcall	.+14     	; 0x1456 <__divmodhi4_neg1>
    1448:	77 fd       	sbrc	r23, 7
    144a:	09 d0       	rcall	.+18     	; 0x145e <__divmodhi4_neg2>
    144c:	0e 94 0b 0a 	call	0x1416	; 0x1416 <__udivmodhi4>
    1450:	07 fc       	sbrc	r0, 7
    1452:	05 d0       	rcall	.+10     	; 0x145e <__divmodhi4_neg2>
    1454:	3e f4       	brtc	.+14     	; 0x1464 <__divmodhi4_exit>

00001456 <__divmodhi4_neg1>:
    1456:	90 95       	com	r25
    1458:	81 95       	neg	r24
    145a:	9f 4f       	sbci	r25, 0xFF	; 255
    145c:	08 95       	ret

0000145e <__divmodhi4_neg2>:
    145e:	70 95       	com	r23
    1460:	61 95       	neg	r22
    1462:	7f 4f       	sbci	r23, 0xFF	; 255

00001464 <__divmodhi4_exit>:
    1464:	08 95       	ret

00001466 <__udivmodsi4>:
    1466:	a1 e2       	ldi	r26, 0x21	; 33
    1468:	1a 2e       	mov	r1, r26
    146a:	aa 1b       	sub	r26, r26
    146c:	bb 1b       	sub	r27, r27
    146e:	fd 01       	movw	r30, r26
    1470:	0d c0       	rjmp	.+26     	; 0x148c <__udivmodsi4_ep>

00001472 <__udivmodsi4_loop>:
    1472:	aa 1f       	adc	r26, r26
    1474:	bb 1f       	adc	r27, r27
    1476:	ee 1f       	adc	r30, r30
    1478:	ff 1f       	adc	r31, r31
    147a:	a2 17       	cp	r26, r18
    147c:	b3 07       	cpc	r27, r19
    147e:	e4 07       	cpc	r30, r20
    1480:	f5 07       	cpc	r31, r21
    1482:	20 f0       	brcs	.+8      	; 0x148c <__udivmodsi4_ep>
    1484:	a2 1b       	sub	r26, r18
    1486:	b3 0b       	sbc	r27, r19
    1488:	e4 0b       	sbc	r30, r20
    148a:	f5 0b       	sbc	r31, r21

0000148c <__udivmodsi4_ep>:
    148c:	66 1f       	adc	r22, r22
    148e:	77 1f       	adc	r23, r23
    1490:	88 1f       	adc	r24, r24
    1492:	99 1f       	adc	r25, r25
    1494:	1a 94       	dec	r1
    1496:	69 f7       	brne	.-38     	; 0x1472 <__udivmodsi4_loop>
    1498:	60 95       	com	r22
    149a:	70 95       	com	r23
    149c:	80 95       	com	r24
    149e:	90 95       	com	r25
    14a0:	9b 01       	movw	r18, r22
    14a2:	ac 01       	movw	r20, r24
    14a4:	bd 01       	movw	r22, r26
    14a6:	cf 01       	movw	r24, r30
    14a8:	08 95       	ret

000014aa <__tablejump2__>:
    14aa:	ee 0f       	add	r30, r30
    14ac:	ff 1f       	adc	r31, r31
    14ae:	05 90       	lpm	r0, Z+
    14b0:	f4 91       	lpm	r31, Z
    14b2:	e0 2d       	mov	r30, r0
    14b4:	09 94       	ijmp

000014b6 <__umulhisi3>:
    14b6:	a2 9f       	mul	r26, r18
    14b8:	b0 01       	movw	r22, r0
    14ba:	b3 9f       	mul	r27, r19
    14bc:	c0 01       	movw	r24, r0
    14be:	a3 9f       	mul	r26, r19
    14c0:	70 0d       	add	r23, r0
    14c2:	81 1d       	adc	r24, r1
    14c4:	11 24       	eor	r1, r1
    14c6:	91 1d       	adc	r25, r1
    14c8:	b2 9f       	mul	r27, r18
    14ca:	70 0d       	add	r23, r0
    14cc:	81 1d       	adc	r24, r1
    14ce:	11 24       	eor	r1, r1
    14d0:	91 1d       	adc	r25, r1
    14d2:	08 95       	ret

000014d4 <__muluhisi3>:
    14d4:	0e 94 5b 0a 	call	0x14b6	; 0x14b6 <__umulhisi3>
    14d8:	a5 9f       	mul	r26, r21
    14da:	90 0d       	add	r25, r0
    14dc:	b4 9f       	mul	r27, r20
    14de:	90 0d       	add	r25, r0
    14e0:	a4 9f       	mul	r26, r20
    14e2:	80 0d       	add	r24, r0
    14e4:	91 1d       	adc	r25, r1
    14e6:	11 24       	eor	r1, r1
    14e8:	08 95       	ret

000014ea <do_rand>:
    14ea:	8f 92       	push	r8
    14ec:	9f 92       	push	r9
    14ee:	af 92       	push	r10
    14f0:	bf 92       	push	r11
    14f2:	cf 92       	push	r12
    14f4:	df 92       	push	r13
    14f6:	ef 92       	push	r14
    14f8:	ff 92       	push	r15
    14fa:	cf 93       	push	r28
    14fc:	df 93       	push	r29
    14fe:	ec 01       	movw	r28, r24
    1500:	68 81       	ld	r22, Y
    1502:	79 81       	ldd	r23, Y+1	; 0x01
    1504:	8a 81       	ldd	r24, Y+2	; 0x02
    1506:	9b 81       	ldd	r25, Y+3	; 0x03
    1508:	61 15       	cp	r22, r1
    150a:	71 05       	cpc	r23, r1
    150c:	81 05       	cpc	r24, r1
    150e:	91 05       	cpc	r25, r1
    1510:	21 f4       	brne	.+8      	; 0x151a <do_rand+0x30>
    1512:	64 e2       	ldi	r22, 0x24	; 36
    1514:	79 ed       	ldi	r23, 0xD9	; 217
    1516:	8b e5       	ldi	r24, 0x5B	; 91
    1518:	97 e0       	ldi	r25, 0x07	; 7
    151a:	2d e1       	ldi	r18, 0x1D	; 29
    151c:	33 ef       	ldi	r19, 0xF3	; 243
    151e:	41 e0       	ldi	r20, 0x01	; 1
    1520:	50 e0       	ldi	r21, 0x00	; 0
    1522:	0e 94 d1 0a 	call	0x15a2	; 0x15a2 <__divmodsi4>
    1526:	49 01       	movw	r8, r18
    1528:	5a 01       	movw	r10, r20
    152a:	9b 01       	movw	r18, r22
    152c:	ac 01       	movw	r20, r24
    152e:	a7 ea       	ldi	r26, 0xA7	; 167
    1530:	b1 e4       	ldi	r27, 0x41	; 65
    1532:	0e 94 6a 0a 	call	0x14d4	; 0x14d4 <__muluhisi3>
    1536:	6b 01       	movw	r12, r22
    1538:	7c 01       	movw	r14, r24
    153a:	ac ee       	ldi	r26, 0xEC	; 236
    153c:	b4 ef       	ldi	r27, 0xF4	; 244
    153e:	a5 01       	movw	r20, r10
    1540:	94 01       	movw	r18, r8
    1542:	0e 94 f3 0a 	call	0x15e6	; 0x15e6 <__mulohisi3>
    1546:	dc 01       	movw	r26, r24
    1548:	cb 01       	movw	r24, r22
    154a:	8c 0d       	add	r24, r12
    154c:	9d 1d       	adc	r25, r13
    154e:	ae 1d       	adc	r26, r14
    1550:	bf 1d       	adc	r27, r15
    1552:	b7 ff       	sbrs	r27, 7
    1554:	03 c0       	rjmp	.+6      	; 0x155c <do_rand+0x72>
    1556:	01 97       	sbiw	r24, 0x01	; 1
    1558:	a1 09       	sbc	r26, r1
    155a:	b0 48       	sbci	r27, 0x80	; 128
    155c:	88 83       	st	Y, r24
    155e:	99 83       	std	Y+1, r25	; 0x01
    1560:	aa 83       	std	Y+2, r26	; 0x02
    1562:	bb 83       	std	Y+3, r27	; 0x03
    1564:	9f 77       	andi	r25, 0x7F	; 127
    1566:	df 91       	pop	r29
    1568:	cf 91       	pop	r28
    156a:	ff 90       	pop	r15
    156c:	ef 90       	pop	r14
    156e:	df 90       	pop	r13
    1570:	cf 90       	pop	r12
    1572:	bf 90       	pop	r11
    1574:	af 90       	pop	r10
    1576:	9f 90       	pop	r9
    1578:	8f 90       	pop	r8
    157a:	08 95       	ret

0000157c <rand_r>:
    157c:	0e 94 75 0a 	call	0x14ea	; 0x14ea <do_rand>
    1580:	08 95       	ret

00001582 <rand>:
    1582:	80 e0       	ldi	r24, 0x00	; 0
    1584:	98 e2       	ldi	r25, 0x28	; 40
    1586:	0e 94 75 0a 	call	0x14ea	; 0x14ea <do_rand>
    158a:	08 95       	ret

0000158c <srand>:
    158c:	a0 e0       	ldi	r26, 0x00	; 0
    158e:	b0 e0       	ldi	r27, 0x00	; 0
    1590:	80 93 00 28 	sts	0x2800, r24	; 0x802800 <__DATA_REGION_ORIGIN__>
    1594:	90 93 01 28 	sts	0x2801, r25	; 0x802801 <__DATA_REGION_ORIGIN__+0x1>
    1598:	a0 93 02 28 	sts	0x2802, r26	; 0x802802 <__DATA_REGION_ORIGIN__+0x2>
    159c:	b0 93 03 28 	sts	0x2803, r27	; 0x802803 <__DATA_REGION_ORIGIN__+0x3>
    15a0:	08 95       	ret

000015a2 <__divmodsi4>:
    15a2:	05 2e       	mov	r0, r21
    15a4:	97 fb       	bst	r25, 7
    15a6:	1e f4       	brtc	.+6      	; 0x15ae <__divmodsi4+0xc>
    15a8:	00 94       	com	r0
    15aa:	0e 94 e8 0a 	call	0x15d0	; 0x15d0 <__negsi2>
    15ae:	57 fd       	sbrc	r21, 7
    15b0:	07 d0       	rcall	.+14     	; 0x15c0 <__divmodsi4_neg2>
    15b2:	0e 94 33 0a 	call	0x1466	; 0x1466 <__udivmodsi4>
    15b6:	07 fc       	sbrc	r0, 7
    15b8:	03 d0       	rcall	.+6      	; 0x15c0 <__divmodsi4_neg2>
    15ba:	4e f4       	brtc	.+18     	; 0x15ce <__divmodsi4_exit>
    15bc:	0c 94 e8 0a 	jmp	0x15d0	; 0x15d0 <__negsi2>

000015c0 <__divmodsi4_neg2>:
    15c0:	50 95       	com	r21
    15c2:	40 95       	com	r20
    15c4:	30 95       	com	r19
    15c6:	21 95       	neg	r18
    15c8:	3f 4f       	sbci	r19, 0xFF	; 255
    15ca:	4f 4f       	sbci	r20, 0xFF	; 255
    15cc:	5f 4f       	sbci	r21, 0xFF	; 255

000015ce <__divmodsi4_exit>:
    15ce:	08 95       	ret

000015d0 <__negsi2>:
    15d0:	90 95       	com	r25
    15d2:	80 95       	com	r24
    15d4:	70 95       	com	r23
    15d6:	61 95       	neg	r22
    15d8:	7f 4f       	sbci	r23, 0xFF	; 255
    15da:	8f 4f       	sbci	r24, 0xFF	; 255
    15dc:	9f 4f       	sbci	r25, 0xFF	; 255
    15de:	08 95       	ret

000015e0 <__mulshisi3>:
    15e0:	b7 ff       	sbrs	r27, 7
    15e2:	0c 94 6a 0a 	jmp	0x14d4	; 0x14d4 <__muluhisi3>

000015e6 <__mulohisi3>:
    15e6:	0e 94 6a 0a 	call	0x14d4	; 0x14d4 <__muluhisi3>
    15ea:	82 1b       	sub	r24, r18
    15ec:	93 0b       	sbc	r25, r19
    15ee:	08 95       	ret

000015f0 <__do_global_dtors>:
    15f0:	10 e0       	ldi	r17, 0x00	; 0
    15f2:	c9 e5       	ldi	r28, 0x59	; 89
    15f4:	d0 e0       	ldi	r29, 0x00	; 0
    15f6:	04 c0       	rjmp	.+8      	; 0x1600 <__do_global_dtors+0x10>
    15f8:	fe 01       	movw	r30, r28
    15fa:	0e 94 55 0a 	call	0x14aa	; 0x14aa <__tablejump2__>
    15fe:	21 96       	adiw	r28, 0x01	; 1
    1600:	ca 35       	cpi	r28, 0x5A	; 90
    1602:	d1 07       	cpc	r29, r17
    1604:	c9 f7       	brne	.-14     	; 0x15f8 <__do_global_dtors+0x8>
    1606:	f8 94       	cli

00001608 <__stop_program>:
    1608:	ff cf       	rjmp	.-2      	; 0x1608 <__stop_program>
